; Listing generated by Microsoft (R) Optimizing Compiler Version 15.00.30729.207 

include listing.inc

INCLUDELIB OLDNAMES

PUBLIC	?BB11A_VITERBIRUN_CLEAR_EVENT@@YAXPEAU_BB11A_RX_CONTEXT@@@Z ; BB11A_VITERBIRUN_CLEAR_EVENT
PUBLIC	?BB11A_VITERBIRUN_WAIT_EVENT@@YAHPEAU_BB11A_RX_CONTEXT@@@Z ; BB11A_VITERBIRUN_WAIT_EVENT
PUBLIC	?BB11A_VITERBIDONE_SET_EVENT@@YAXPEAU_BB11A_RX_CONTEXT@@@Z ; BB11A_VITERBIDONE_SET_EVENT
	ORG $+12
rgbLongPrePositive DB 00H
	DB	01H
	DB	00H
	DB	00H
	DB	01H
	DB	01H
	DB	00H
	DB	01H
	DB	00H
	DB	01H
	DB	00H
	DB	00H
	DB	00H
	DB	00H
	DB	00H
	DB	01H
	DB	01H
	DB	00H
	DB	00H
	DB	01H
	DB	00H
	DB	01H
	DB	00H
	DB	01H
	DB	01H
	DB	01H
	DB	01H
	DB	00H
	DB	00H
	DB	00H
	DB	00H
	DB	00H
	DB	00H
	DB	00H
	DB	00H
	DB	00H
	DB	00H
	DB	00H
	DB	01H
	DB	01H
	DB	00H
	DB	00H
	DB	01H
	DB	01H
	DB	00H
	DB	01H
	DB	00H
	DB	01H
	DB	01H
	DB	01H
	DB	01H
	DB	01H
	DB	01H
	DB	00H
	DB	00H
	DB	01H
	DB	01H
	DB	00H
	DB	01H
	DB	00H
	DB	01H
	DB	01H
	DB	01H
	DB	01H
gAGCLut	DD	0fffffff9H
	DD	0fffffffaH
	DD	0fffffffbH
	DD	0fffffffcH
	DD	0fffffffdH
	DD	0fffffffeH
	DD	0ffffffffH
	DD	00H
	DD	01H
	DD	02H
	DD	03H
	DD	04H
	DD	02H
	DD	02H
	DD	02H
	DD	02H
	DD	02H
; Function compile flags: /Ogtpy
; File c:\sorasdk1.7\src\inc\bb\bba.h
;	COMDAT ?BB11A_VITERBIDONE_SET_EVENT@@YAXPEAU_BB11A_RX_CONTEXT@@@Z
_TEXT	SEGMENT
pRxContextA$ = 8
?BB11A_VITERBIDONE_SET_EVENT@@YAXPEAU_BB11A_RX_CONTEXT@@@Z PROC ; BB11A_VITERBIDONE_SET_EVENT, COMDAT

; 126  :     pRxContextA->bViterbiDone = TRUE;

	mov	BYTE PTR [rcx+761], 1

; 127  : }

	ret	0
?BB11A_VITERBIDONE_SET_EVENT@@YAXPEAU_BB11A_RX_CONTEXT@@@Z ENDP ; BB11A_VITERBIDONE_SET_EVENT
; Function compile flags: /Ogtpy
_TEXT	ENDS
;	COMDAT ?BB11A_VITERBIRUN_WAIT_EVENT@@YAHPEAU_BB11A_RX_CONTEXT@@@Z
_TEXT	SEGMENT
pRxContextA$ = 8
?BB11A_VITERBIRUN_WAIT_EVENT@@YAHPEAU_BB11A_RX_CONTEXT@@@Z PROC ; BB11A_VITERBIRUN_WAIT_EVENT, COMDAT

; 121  :     return pRxContextA->bRunViterbi;

	movsx	eax, BYTE PTR [rcx+760]

; 122  : }

	ret	0
?BB11A_VITERBIRUN_WAIT_EVENT@@YAHPEAU_BB11A_RX_CONTEXT@@@Z ENDP ; BB11A_VITERBIRUN_WAIT_EVENT
; Function compile flags: /Ogtpy
_TEXT	ENDS
;	COMDAT ?BB11A_VITERBIRUN_CLEAR_EVENT@@YAXPEAU_BB11A_RX_CONTEXT@@@Z
_TEXT	SEGMENT
pRxContextA$ = 8
?BB11A_VITERBIRUN_CLEAR_EVENT@@YAXPEAU_BB11A_RX_CONTEXT@@@Z PROC ; BB11A_VITERBIRUN_CLEAR_EVENT, COMDAT

; 116  :     pRxContextA->bRunViterbi = FALSE;

	mov	BYTE PTR [rcx+760], 0

; 117  : }

	ret	0
?BB11A_VITERBIRUN_CLEAR_EVENT@@YAXPEAU_BB11A_RX_CONTEXT@@@Z ENDP ; BB11A_VITERBIRUN_CLEAR_EVENT
PUBLIC	BB11ARxViterbiWorker
;	COMDAT pdata
pdata	SEGMENT
$pdata$BB11ARxViterbiWorker DD imagerel $LN38
	DD	imagerel $LN38+376
	DD	imagerel $unwind$BB11ARxViterbiWorker
pdata	ENDS
;	COMDAT xdata
xdata	SEGMENT
$unwind$BB11ARxViterbiWorker DD 020601H
	DD	030023206H
; Function compile flags: /Ogtpy
; File c:\sorasdk1.7\src\bb\dot11a\dot11\arx_bg1.c
xdata	ENDS
;	COMDAT BB11ARxViterbiWorker
_TEXT	SEGMENT
pContext$ = 48
BB11ARxViterbiWorker PROC				; COMDAT

; 15   : {

$LN38:
	push	rbx
	sub	rsp, 32					; 00000020H

; 16   :     PBB11A_RX_CONTEXT pRxContextA = (PBB11A_RX_CONTEXT)pContext;
; 17   : 
; 18   :     if (BB11A_VITERBIRUN_WAIT_EVENT(pRxContextA))

	movzx	eax, BYTE PTR [rcx+760]
	mov	rbx, rcx
	test	al, al
	je	$LN37@BB11ARxVit

; 19   :     {
; 20   :         BB11A_VITERBIRUN_CLEAR_EVENT(pRxContextA);

	mov	BYTE PTR [rcx+760], 0

; 21   :         pRxContextA->bCRCCorrect = FALSE;

	mov	DWORD PTR [rcx+764], 0

; 22   : 
; 23   :         switch (pRxContextA->bRate & 0x7)

	mov	al, BYTE PTR [rcx+768]
	and	eax, 7
	cmp	eax, 7
	ja	$LN9@BB11ARxVit
	lea	rdx, OFFSET FLAT:__ImageBase
	cdqe
	mov	ecx, DWORD PTR $LN36@BB11ARxVit[rdx+rax*4]
	add	rcx, rdx
	jmp	rcx
$LN8@BB11ARxVit:

; 24   :         {
; 25   :             case 0x3:
; 26   :                 VitDesCRC6(pRxContextA);

	mov	rdx, QWORD PTR [rbx+792]
	mov	rcx, rbx
	call	??$VitDesCRC@$05$06$0CE@$0BI@U?$VB@$0DA@$0IA@@@@@YAXPEAU_BB11A_RX_CONTEXT@@AEAU?$VB@$0DA@$0IA@@@@Z ; VitDesCRC<6,7,36,24,VB<48,128> >

; 51   :                 break;
; 52   :         }
; 53   : 
; 54   :         _mm_mfence();

	mfence

; 55   :         BB11A_VITERBIDONE_SET_EVENT(pRxContextA);

	mov	BYTE PTR [rbx+761], 1

; 56   :     }
; 57   :     return TRUE;

	mov	al, 1

; 58   : }

	add	rsp, 32					; 00000020H
	pop	rbx
	ret	0
$LN7@BB11ARxVit:

; 27   :                 break;
; 28   :             case 0x7:
; 29   :                 VitDesCRC9(pRxContextA);

	mov	rdx, QWORD PTR [rbx+792]
	mov	rcx, rbx
	call	??$VitDesCRC@$08$02$0EI@$0EI@U?$VB@$0DA@$0IA@@@@@YAXPEAU_BB11A_RX_CONTEXT@@AEAU?$VB@$0DA@$0IA@@@@Z ; VitDesCRC<9,3,72,72,VB<48,128> >

; 51   :                 break;
; 52   :         }
; 53   : 
; 54   :         _mm_mfence();

	mfence

; 55   :         BB11A_VITERBIDONE_SET_EVENT(pRxContextA);

	mov	BYTE PTR [rbx+761], 1

; 56   :     }
; 57   :     return TRUE;

	mov	al, 1

; 58   : }

	add	rsp, 32					; 00000020H
	pop	rbx
	ret	0
$LN6@BB11ARxVit:

; 30   :                 break;
; 31   : 
; 32   :             case 0x2:
; 33   :                 VitDesCRC12(pRxContextA);

	mov	rdx, QWORD PTR [rbx+792]
	mov	rcx, rbx
	call	??$VitDesCRC@$0M@$06$0CE@$0DA@U?$VB@$0GA@$0IA@@@@@YAXPEAU_BB11A_RX_CONTEXT@@AEAU?$VB@$0GA@$0IA@@@@Z ; VitDesCRC<12,7,36,48,VB<96,128> >

; 51   :                 break;
; 52   :         }
; 53   : 
; 54   :         _mm_mfence();

	mfence

; 55   :         BB11A_VITERBIDONE_SET_EVENT(pRxContextA);

	mov	BYTE PTR [rbx+761], 1

; 56   :     }
; 57   :     return TRUE;

	mov	al, 1

; 58   : }

	add	rsp, 32					; 00000020H
	pop	rbx
	ret	0
$LN5@BB11ARxVit:

; 34   :                 break;
; 35   :             case 0x6:
; 36   :                 VitDesCRC18(pRxContextA);

	mov	rdx, QWORD PTR [rbx+792]
	mov	rcx, rbx
	call	??$VitDesCRC@$0BC@$02$0EI@$0EI@U?$VB@$0GA@$0IA@@@@@YAXPEAU_BB11A_RX_CONTEXT@@AEAU?$VB@$0GA@$0IA@@@@Z ; VitDesCRC<18,3,72,72,VB<96,128> >

; 51   :                 break;
; 52   :         }
; 53   : 
; 54   :         _mm_mfence();

	mfence

; 55   :         BB11A_VITERBIDONE_SET_EVENT(pRxContextA);

	mov	BYTE PTR [rbx+761], 1

; 56   :     }
; 57   :     return TRUE;

	mov	al, 1

; 58   : }

	add	rsp, 32					; 00000020H
	pop	rbx
	ret	0
$LN4@BB11ARxVit:

; 37   :                 break;
; 38   : 
; 39   :             case 0x1:
; 40   :                 VitDesCRC24(pRxContextA);

	mov	rdx, QWORD PTR [rbx+792]
	mov	rcx, rbx
	call	??$VitDesCRC@$0BI@$06$0CE@$0GA@U?$VB@$0MA@$0IA@@@@@YAXPEAU_BB11A_RX_CONTEXT@@AEAU?$VB@$0MA@$0IA@@@@Z ; VitDesCRC<24,7,36,96,VB<192,128> >

; 51   :                 break;
; 52   :         }
; 53   : 
; 54   :         _mm_mfence();

	mfence

; 55   :         BB11A_VITERBIDONE_SET_EVENT(pRxContextA);

	mov	BYTE PTR [rbx+761], 1

; 56   :     }
; 57   :     return TRUE;

	mov	al, 1

; 58   : }

	add	rsp, 32					; 00000020H
	pop	rbx
	ret	0
$LN3@BB11ARxVit:

; 41   :                 break;
; 42   :             case 0x5:
; 43   :                 VitDesCRC36(pRxContextA);

	mov	rdx, QWORD PTR [rbx+792]
	mov	rcx, rbx
	call	??$VitDesCRC@$0CE@$02$0EI@$0JA@U?$VB@$0MA@$0IA@@@@@YAXPEAU_BB11A_RX_CONTEXT@@AEAU?$VB@$0MA@$0IA@@@@Z ; VitDesCRC<36,3,72,144,VB<192,128> >

; 51   :                 break;
; 52   :         }
; 53   : 
; 54   :         _mm_mfence();

	mfence

; 55   :         BB11A_VITERBIDONE_SET_EVENT(pRxContextA);

	mov	BYTE PTR [rbx+761], 1

; 56   :     }
; 57   :     return TRUE;

	mov	al, 1

; 58   : }

	add	rsp, 32					; 00000020H
	pop	rbx
	ret	0
$LN2@BB11ARxVit:

; 44   :                 break;
; 45   : 
; 46   :             case 0x0:
; 47   :                 VitDesCRC48(pRxContextA);

	mov	rdx, QWORD PTR [rbx+792]
	mov	rcx, rbx
	call	??$VitDesCRC@$0DA@$06$0CE@$0MA@U?$VB@$0BCA@$0IA@@@@@YAXPEAU_BB11A_RX_CONTEXT@@AEAU?$VB@$0BCA@$0IA@@@@Z ; VitDesCRC<48,7,36,192,VB<288,128> >

; 51   :                 break;
; 52   :         }
; 53   : 
; 54   :         _mm_mfence();

	mfence

; 55   :         BB11A_VITERBIDONE_SET_EVENT(pRxContextA);

	mov	BYTE PTR [rbx+761], 1

; 56   :     }
; 57   :     return TRUE;

	mov	al, 1

; 58   : }

	add	rsp, 32					; 00000020H
	pop	rbx
	ret	0
$LN1@BB11ARxVit:

; 48   :                 break;
; 49   :             case 0x4:
; 50   :                 VitDesCRC54(pRxContextA);

	mov	rdx, QWORD PTR [rbx+792]
	mov	rcx, rbx
	call	??$VitDesCRC@$0DG@$06$0CE@$0NI@U?$VB@$0BCA@$0IA@@@@@YAXPEAU_BB11A_RX_CONTEXT@@AEAU?$VB@$0BCA@$0IA@@@@Z ; VitDesCRC<54,7,36,216,VB<288,128> >
$LN9@BB11ARxVit:

; 51   :                 break;
; 52   :         }
; 53   : 
; 54   :         _mm_mfence();

	mfence

; 55   :         BB11A_VITERBIDONE_SET_EVENT(pRxContextA);

	mov	BYTE PTR [rbx+761], 1
$LN37@BB11ARxVit:

; 56   :     }
; 57   :     return TRUE;

	mov	al, 1

; 58   : }

	add	rsp, 32					; 00000020H
	pop	rbx
	ret	0
$LN36@BB11ARxVit:
	DD	$LN2@BB11ARxVit
	DD	$LN4@BB11ARxVit
	DD	$LN6@BB11ARxVit
	DD	$LN8@BB11ARxVit
	DD	$LN1@BB11ARxVit
	DD	$LN3@BB11ARxVit
	DD	$LN5@BB11ARxVit
	DD	$LN7@BB11ARxVit
BB11ARxViterbiWorker ENDP
END
