; Listing generated by Microsoft (R) Optimizing Compiler Version 15.00.30729.207 

include listing.inc

INCLUDELIB OLDNAMES

PUBLIC	?Map16QAM_11a@@YAXPEADPEAU_COMPLEX16@@@Z	; Map16QAM_11a
PUBLIC	?Interleave16QAM@@YAXPEBDPEAD@Z			; Interleave16QAM
PUBLIC	?Generate24MSymbol@@YAIPEAU_BB11A_TX_VECTOR@@PEAU_COMPLEX8@@PEAU_COMPLEX16@@PEADE@Z ; Generate24MSymbol
	ORG $+12
rgbLongPrePositive DB 00H
	DB	01H
	DB	00H
	DB	00H
	DB	01H
	DB	01H
	DB	00H
	DB	01H
	DB	00H
	DB	01H
	DB	00H
	DB	00H
	DB	00H
	DB	00H
	DB	00H
	DB	01H
	DB	01H
	DB	00H
	DB	00H
	DB	01H
	DB	00H
	DB	01H
	DB	00H
	DB	01H
	DB	01H
	DB	01H
	DB	01H
	DB	00H
	DB	00H
	DB	00H
	DB	00H
	DB	00H
	DB	00H
	DB	00H
	DB	00H
	DB	00H
	DB	00H
	DB	00H
	DB	01H
	DB	01H
	DB	00H
	DB	00H
	DB	01H
	DB	01H
	DB	00H
	DB	01H
	DB	00H
	DB	01H
	DB	01H
	DB	01H
	DB	01H
	DB	01H
	DB	01H
	DB	00H
	DB	00H
	DB	01H
	DB	01H
	DB	00H
	DB	01H
	DB	00H
	DB	01H
	DB	01H
	DB	01H
	DB	01H
gAGCLut	DD	0fffffff9H
	DD	0fffffffaH
	DD	0fffffffbH
	DD	0fffffffcH
	DD	0fffffffdH
	DD	0fffffffeH
	DD	0ffffffffH
	DD	00H
	DD	01H
	DD	02H
	DD	03H
	DD	04H
	DD	02H
	DD	02H
	DD	02H
	DD	02H
	DD	02H
; Function compile flags: /Ogtpy
; File c:\sorasdk1.7\src\bb\dot11a\inc\bb\mod\ainterleave.h
;	COMDAT ?Interleave16QAM@@YAXPEBDPEAD@Z
_TEXT	SEGMENT
pbInput$ = 8
pbOutput$ = 16
?Interleave16QAM@@YAXPEBDPEAD@Z PROC			; Interleave16QAM, COMDAT

; 54   :     unsigned int * puiOutput = (unsigned int *) pbOutput;
; 55   :     const unsigned int * puiInterleaveMask 
; 56   :         = INTERLEAVE_24M((unsigned char)(pbInput[0]));

	movzx	eax, BYTE PTR [rcx]
	lea	r10, OFFSET FLAT:INTERLEAVE_24M_LUT
	lea	r8d, DWORD PTR [rax+rax*2]
	add	r8d, r8d
	movsxd	r9, r8d
	mov	r8d, 256				; 00000100H

; 57   :     unsigned int j;
; 58   : 
; 59   :     puiOutput[0] = puiInterleaveMask[0];

	mov	eax, DWORD PTR [r10+r9*4]
	mov	DWORD PTR [rdx], eax

; 60   :     puiOutput[1] = puiInterleaveMask[1];

	mov	eax, DWORD PTR [r10+r9*4+4]
	mov	DWORD PTR [rdx+4], eax

; 61   :     puiOutput[2] = puiInterleaveMask[2];

	mov	eax, DWORD PTR [r10+r9*4+8]
	mov	DWORD PTR [rdx+8], eax

; 62   :     puiOutput[3] = puiInterleaveMask[3];

	mov	eax, DWORD PTR [r10+r9*4+12]
	mov	DWORD PTR [rdx+12], eax

; 63   :     puiOutput[4] = puiInterleaveMask[4];

	mov	eax, DWORD PTR [r10+r9*4+16]
	mov	DWORD PTR [rdx+16], eax

; 64   :     puiOutput[5] = puiInterleaveMask[5];

	mov	eax, DWORD PTR [r10+r9*4+20]
	lea	r9, QWORD PTR [rcx+1]
	mov	DWORD PTR [rdx+20], eax
	npad	4
$LL3@Interleave:

; 65   : 
; 66   :     for (j = 1; j < 24; j++)
; 67   :     {
; 68   :         puiInterleaveMask = INTERLEAVE_24M((j << 8) 
; 69   :                 + (unsigned char)(pbInput[j]));

	movzx	eax, BYTE PTR [r9]
	inc	r9
	add	eax, r8d
	add	r8d, 256				; 00000100H
	lea	eax, DWORD PTR [rax+rax*2]
	add	eax, eax
	mov	ecx, eax

; 70   : 
; 71   :         puiOutput[0] |= puiInterleaveMask[0];

	mov	eax, DWORD PTR [r10+rax*4]
	or	DWORD PTR [rdx], eax

; 72   :         puiOutput[1] |= puiInterleaveMask[1];

	mov	eax, DWORD PTR [r10+rcx*4+4]
	or	DWORD PTR [rdx+4], eax

; 73   :         puiOutput[2] |= puiInterleaveMask[2];

	mov	eax, DWORD PTR [r10+rcx*4+8]
	or	DWORD PTR [rdx+8], eax

; 74   :         puiOutput[3] |= puiInterleaveMask[3];

	mov	eax, DWORD PTR [r10+rcx*4+12]
	or	DWORD PTR [rdx+12], eax

; 75   :         puiOutput[4] |= puiInterleaveMask[4];

	mov	eax, DWORD PTR [r10+rcx*4+16]
	or	DWORD PTR [rdx+16], eax

; 76   :         puiOutput[5] |= puiInterleaveMask[5];

	mov	eax, DWORD PTR [r10+rcx*4+20]
	or	DWORD PTR [rdx+20], eax
	cmp	r8d, 6144				; 00001800H
	jb	SHORT $LL3@Interleave

; 77   :     }
; 78   : }

	fatret	0
?Interleave16QAM@@YAXPEBDPEAD@Z ENDP			; Interleave16QAM
; Function compile flags: /Ogtpy
; File c:\sorasdk1.7\src\bb\dot11a\inc\bb\mod\amap.h
_TEXT	ENDS
;	COMDAT ?Map16QAM_11a@@YAXPEADPEAU_COMPLEX16@@@Z
_TEXT	SEGMENT
pbInput$ = 8
pcOutput$ = 16
?Map16QAM_11a@@YAXPEADPEAU_COMPLEX16@@@Z PROC		; Map16QAM_11a, COMDAT

; 41   :     unsigned int i;
; 42   :     const COMPLEX16 * pcLUT;
; 43   : 
; 44   :     for (i = 0; i < 24; i++)

	lea	r8, QWORD PTR [rcx+1]
	mov	r9d, 4
	lea	r10, OFFSET FLAT:MAPA_16QAM_LUT
$LL3@Map16QAM_1:

; 45   :     {
; 46   :         pcLUT = MAPA_16QAM((unsigned char)(pbInput[i]));

	movzx	eax, BYTE PTR [r8-1]

; 47   :         pcOutput[0] = pcLUT[0];
; 48   :         pcOutput[1] = pcLUT[1];

	add	rdx, 48					; 00000030H
	add	r8, 6
	add	eax, eax
	movsxd	rcx, eax
	mov	eax, DWORD PTR [r10+rcx*4]
	mov	DWORD PTR [rdx-48], eax
	mov	eax, DWORD PTR [r10+rcx*4+4]
	mov	DWORD PTR [rdx-44], eax
	movzx	eax, BYTE PTR [r8-6]
	add	eax, eax
	movsxd	rcx, eax
	mov	eax, DWORD PTR [r10+rcx*4]
	mov	DWORD PTR [rdx-40], eax
	mov	eax, DWORD PTR [r10+rcx*4+4]
	mov	DWORD PTR [rdx-36], eax
	movzx	eax, BYTE PTR [r8-5]
	add	eax, eax
	movsxd	rcx, eax
	mov	eax, DWORD PTR [r10+rcx*4]
	mov	DWORD PTR [rdx-32], eax
	mov	eax, DWORD PTR [r10+rcx*4+4]
	mov	DWORD PTR [rdx-28], eax
	movzx	eax, BYTE PTR [r8-4]
	add	eax, eax
	movsxd	rcx, eax
	mov	eax, DWORD PTR [r10+rcx*4]
	mov	DWORD PTR [rdx-24], eax
	mov	eax, DWORD PTR [r10+rcx*4+4]
	mov	DWORD PTR [rdx-20], eax
	movzx	eax, BYTE PTR [r8-3]
	add	eax, eax
	movsxd	rcx, eax
	mov	eax, DWORD PTR [r10+rcx*4]
	mov	DWORD PTR [rdx-16], eax
	mov	eax, DWORD PTR [r10+rcx*4+4]
	mov	DWORD PTR [rdx-12], eax
	movzx	eax, BYTE PTR [r8-2]
	add	eax, eax
	sub	r9, 1
	movsxd	rcx, eax
	mov	eax, DWORD PTR [r10+rcx*4]
	mov	DWORD PTR [rdx-8], eax
	mov	eax, DWORD PTR [r10+rcx*4+4]
	mov	DWORD PTR [rdx-4], eax
	jne	$LL3@Map16QAM_1

; 49   :         pcOutput += 2;
; 50   :     }
; 51   : }

	fatret	0
?Map16QAM_11a@@YAXPEADPEAU_COMPLEX16@@@Z ENDP		; Map16QAM_11a
;	COMDAT pdata
; File c:\sorasdk1.7\inc\vector128.h
pdata	SEGMENT
$pdata$?Generate24MSymbol@@YAIPEAU_BB11A_TX_VECTOR@@PEAU_COMPLEX8@@PEAU_COMPLEX16@@PEADE@Z DD imagerel $LN1036
	DD	imagerel $LN1036+15
	DD	imagerel $unwind$?Generate24MSymbol@@YAIPEAU_BB11A_TX_VECTOR@@PEAU_COMPLEX8@@PEAU_COMPLEX16@@PEADE@Z
pdata	ENDS
;	COMDAT pdata
pdata	SEGMENT
$pdata$1$?Generate24MSymbol@@YAIPEAU_BB11A_TX_VECTOR@@PEAU_COMPLEX8@@PEAU_COMPLEX16@@PEADE@Z DD imagerel $LN1036+15
	DD	imagerel $LN1036+592
	DD	imagerel $chain$1$?Generate24MSymbol@@YAIPEAU_BB11A_TX_VECTOR@@PEAU_COMPLEX8@@PEAU_COMPLEX16@@PEADE@Z
pdata	ENDS
;	COMDAT pdata
pdata	SEGMENT
$pdata$2$?Generate24MSymbol@@YAIPEAU_BB11A_TX_VECTOR@@PEAU_COMPLEX8@@PEAU_COMPLEX16@@PEADE@Z DD imagerel $LN1036+592
	DD	imagerel $LN1036+1568
	DD	imagerel $chain$2$?Generate24MSymbol@@YAIPEAU_BB11A_TX_VECTOR@@PEAU_COMPLEX8@@PEAU_COMPLEX16@@PEADE@Z
pdata	ENDS
;	COMDAT pdata
pdata	SEGMENT
$pdata$3$?Generate24MSymbol@@YAIPEAU_BB11A_TX_VECTOR@@PEAU_COMPLEX8@@PEAU_COMPLEX16@@PEADE@Z DD imagerel $LN1036+1568
	DD	imagerel $LN1036+1576
	DD	imagerel $chain$3$?Generate24MSymbol@@YAIPEAU_BB11A_TX_VECTOR@@PEAU_COMPLEX8@@PEAU_COMPLEX16@@PEADE@Z
pdata	ENDS
;	COMDAT pdata
pdata	SEGMENT
$pdata$12$?Generate24MSymbol@@YAIPEAU_BB11A_TX_VECTOR@@PEAU_COMPLEX8@@PEAU_COMPLEX16@@PEADE@Z DD imagerel $LN1036+1576
	DD	imagerel $LN1036+2816
	DD	imagerel $chain$12$?Generate24MSymbol@@YAIPEAU_BB11A_TX_VECTOR@@PEAU_COMPLEX8@@PEAU_COMPLEX16@@PEADE@Z
pdata	ENDS
;	COMDAT pdata
pdata	SEGMENT
$pdata$13$?Generate24MSymbol@@YAIPEAU_BB11A_TX_VECTOR@@PEAU_COMPLEX8@@PEAU_COMPLEX16@@PEADE@Z DD imagerel $LN1036+2816
	DD	imagerel $LN1036+2971
	DD	imagerel $chain$13$?Generate24MSymbol@@YAIPEAU_BB11A_TX_VECTOR@@PEAU_COMPLEX8@@PEAU_COMPLEX16@@PEADE@Z
pdata	ENDS
;	COMDAT xdata
xdata	SEGMENT
$chain$13$?Generate24MSymbol@@YAIPEAU_BB11A_TX_VECTOR@@PEAU_COMPLEX8@@PEAU_COMPLEX16@@PEADE@Z DD 021H
	DD	imagerel $LN1036+1568
	DD	imagerel $LN1036+1576
	DD	imagerel $chain$3$?Generate24MSymbol@@YAIPEAU_BB11A_TX_VECTOR@@PEAU_COMPLEX8@@PEAU_COMPLEX16@@PEADE@Z
xdata	ENDS
;	COMDAT xdata
xdata	SEGMENT
$chain$12$?Generate24MSymbol@@YAIPEAU_BB11A_TX_VECTOR@@PEAU_COMPLEX8@@PEAU_COMPLEX16@@PEADE@Z DD 012c321H
	DD	023e8c3H
	DD	024d8a0H
	DD	025c88eH
	DD	026b871H
	DD	027a84fH
	DD	028983dH
	DD	029882bH
	DD	02a781aH
	DD	02b6808H
	DD	imagerel $LN1036+1568
	DD	imagerel $LN1036+1576
	DD	imagerel $chain$3$?Generate24MSymbol@@YAIPEAU_BB11A_TX_VECTOR@@PEAU_COMPLEX8@@PEAU_COMPLEX16@@PEADE@Z
xdata	ENDS
;	COMDAT xdata
xdata	SEGMENT
$chain$3$?Generate24MSymbol@@YAIPEAU_BB11A_TX_VECTOR@@PEAU_COMPLEX8@@PEAU_COMPLEX16@@PEADE@Z DD 021H
	DD	imagerel $LN1036
	DD	imagerel $LN1036+15
	DD	imagerel $unwind$?Generate24MSymbol@@YAIPEAU_BB11A_TX_VECTOR@@PEAU_COMPLEX8@@PEAU_COMPLEX16@@PEADE@Z
xdata	ENDS
;	COMDAT xdata
xdata	SEGMENT
$chain$2$?Generate24MSymbol@@YAIPEAU_BB11A_TX_VECTOR@@PEAU_COMPLEX8@@PEAU_COMPLEX16@@PEADE@Z DD 020021H
	DD	058c400H
	DD	imagerel $LN1036
	DD	imagerel $LN1036+15
	DD	imagerel $unwind$?Generate24MSymbol@@YAIPEAU_BB11A_TX_VECTOR@@PEAU_COMPLEX8@@PEAU_COMPLEX16@@PEADE@Z
xdata	ENDS
;	COMDAT xdata
xdata	SEGMENT
$chain$1$?Generate24MSymbol@@YAIPEAU_BB11A_TX_VECTOR@@PEAU_COMPLEX8@@PEAU_COMPLEX16@@PEADE@Z DD 041221H
	DD	058c412H
	DD	05e5404H
	DD	imagerel $LN1036
	DD	imagerel $LN1036+15
	DD	imagerel $unwind$?Generate24MSymbol@@YAIPEAU_BB11A_TX_VECTOR@@PEAU_COMPLEX8@@PEAU_COMPLEX16@@PEADE@Z
xdata	ENDS
;	COMDAT xdata
xdata	SEGMENT
$unwind$?Generate24MSymbol@@YAIPEAU_BB11A_TX_VECTOR@@PEAU_COMPLEX8@@PEAU_COMPLEX16@@PEADE@Z DD 060f01H
	DD	059010fH
	DD	07006d008H
	DD	030046005H
; Function compile flags: /Ogtpy
; File c:\sorasdk1.7\src\bb\dot11a\inc\bb\mod\ofdmsymbol.h
xdata	ENDS
;	COMDAT ?Generate24MSymbol@@YAIPEAU_BB11A_TX_VECTOR@@PEAU_COMPLEX8@@PEAU_COMPLEX16@@PEADE@Z
_TEXT	SEGMENT
rr1$1588914 = 32
temp$1582620 = 48
info$ = 752
pcOutput$ = 760
pcLast$ = 768
pbData$ = 776
bPilotSgn$ = 784
?Generate24MSymbol@@YAIPEAU_BB11A_TX_VECTOR@@PEAU_COMPLEX8@@PEAU_COMPLEX16@@PEADE@Z PROC ; Generate24MSymbol, COMDAT

; 180  : {

$LN1036:
	mov	rax, rsp
	push	rbx
	push	rsi
	push	rdi
	push	r13
	sub	rsp, 712				; 000002c8H
	mov	QWORD PTR [rax+8], rbp
	mov	rbx, rdx

; 181  :     ConvEncode_1_2(pbData, info->bEncoded, 12, info->bConvEncoderReg);

	movzx	edx, BYTE PTR TxVector+24
	mov	QWORD PTR [rax-40], r12
	lea	r10, OFFSET FLAT:TxVector+29
	inc	r9
	mov	r12, r8
	mov	r11d, 2
	lea	r13, OFFSET FLAT:__ImageBase
	npad	5
$LL5@Generate24:
	movzx	r8d, BYTE PTR [r9-1]
	movzx	eax, dl
	add	r10, 12
	shl	eax, 8
	add	r9, 6
	movsxd	rcx, eax
	or	rcx, r8
	shr	r8b, 2
	movzx	eax, WORD PTR CONV_ENCODER_1_2_LUT[r13+rcx*2]
	mov	WORD PTR [r10-16], ax
	mov	BYTE PTR TxVector+24, r8b
	movzx	edx, BYTE PTR [r9-6]
	movzx	eax, r8b
	shl	eax, 8
	movsxd	rcx, eax
	or	rcx, rdx
	shr	dl, 2
	movzx	eax, WORD PTR CONV_ENCODER_1_2_LUT[r13+rcx*2]
	mov	WORD PTR [r10-14], ax
	mov	BYTE PTR TxVector+24, dl
	movzx	r8d, BYTE PTR [r9-5]
	movzx	eax, dl
	shl	eax, 8
	movsxd	rcx, eax
	or	rcx, r8
	shr	r8b, 2
	movzx	eax, WORD PTR CONV_ENCODER_1_2_LUT[r13+rcx*2]
	mov	WORD PTR [r10-12], ax
	mov	BYTE PTR TxVector+24, r8b
	movzx	edx, BYTE PTR [r9-4]
	movzx	eax, r8b
	shl	eax, 8
	movsxd	rcx, eax
	or	rcx, rdx
	shr	dl, 2
	movzx	eax, WORD PTR CONV_ENCODER_1_2_LUT[r13+rcx*2]
	mov	WORD PTR [r10-10], ax
	mov	BYTE PTR TxVector+24, dl
	movzx	r8d, BYTE PTR [r9-3]
	movzx	eax, dl
	shl	eax, 8
	movsxd	rcx, eax
	or	rcx, r8
	shr	r8b, 2
	movzx	eax, WORD PTR CONV_ENCODER_1_2_LUT[r13+rcx*2]
	mov	WORD PTR [r10-8], ax
	mov	BYTE PTR TxVector+24, r8b
	movzx	edx, BYTE PTR [r9-2]
	movzx	eax, r8b
	shl	eax, 8
	movsxd	rcx, eax
	or	rcx, rdx
	shr	dl, 2
	sub	r11, 1
	movzx	eax, WORD PTR CONV_ENCODER_1_2_LUT[r13+rcx*2]
	mov	WORD PTR [r10-6], ax
	mov	BYTE PTR TxVector+24, dl
	jne	$LL5@Generate24

; 182  : 
; 183  :     Interleave16QAM(info->bEncoded, info->bInterleaved);

	movzx	eax, BYTE PTR TxVector+25
	mov	edx, 256				; 00000100H
	lea	rbp, OFFSET FLAT:TxVector+26
	lea	ecx, DWORD PTR [rax+rax*2]
	lea	eax, DWORD PTR [rcx+rcx]
	cdqe
	mov	r8d, DWORD PTR INTERLEAVE_24M_LUT[r13+rax*4]
	mov	r9d, DWORD PTR INTERLEAVE_24M_LUT[r13+rax*4+4]
	mov	r10d, DWORD PTR INTERLEAVE_24M_LUT[r13+rax*4+8]
	mov	r11d, DWORD PTR INTERLEAVE_24M_LUT[r13+rax*4+12]
	mov	edi, DWORD PTR INTERLEAVE_24M_LUT[r13+rax*4+16]
	mov	esi, DWORD PTR INTERLEAVE_24M_LUT[r13+rax*4+20]
	mov	DWORD PTR TxVector+61, r8d
	mov	DWORD PTR TxVector+65, r9d
	mov	DWORD PTR TxVector+69, r10d
	mov	DWORD PTR TxVector+73, r11d
	mov	DWORD PTR TxVector+77, edi
	mov	DWORD PTR TxVector+81, esi
	npad	2
$LL10@Generate24:
	movzx	eax, BYTE PTR [rbp]
	inc	rbp
	add	eax, edx
	add	edx, 256				; 00000100H
	lea	eax, DWORD PTR [rax+rax*2]
	add	eax, eax
	or	r8d, DWORD PTR INTERLEAVE_24M_LUT[r13+rax*4]
	or	r9d, DWORD PTR INTERLEAVE_24M_LUT[r13+rax*4+4]
	or	r10d, DWORD PTR INTERLEAVE_24M_LUT[r13+rax*4+8]
	or	r11d, DWORD PTR INTERLEAVE_24M_LUT[r13+rax*4+12]
	or	edi, DWORD PTR INTERLEAVE_24M_LUT[r13+rax*4+16]
	or	esi, DWORD PTR INTERLEAVE_24M_LUT[r13+rax*4+20]
	mov	DWORD PTR TxVector+61, r8d
	mov	DWORD PTR TxVector+65, r9d
	mov	DWORD PTR TxVector+69, r10d
	mov	DWORD PTR TxVector+73, r11d
	mov	DWORD PTR TxVector+77, edi
	mov	DWORD PTR TxVector+81, esi
	cmp	edx, 6144				; 00001800H
	jb	SHORT $LL10@Generate24
	mov	rbp, QWORD PTR [rsp+752]

; 184  :     Map16QAM_11a(info->bInterleaved, info->cMapped);

	lea	rdx, OFFSET FLAT:TxVector+120
	lea	r8, OFFSET FLAT:TxVector+62
	mov	r9d, 4
$LL15@Generate24:
	movzx	eax, BYTE PTR [r8-1]
	add	rdx, 48					; 00000030H
	add	r8, 6
	add	eax, eax
	movsxd	rcx, eax
	mov	eax, DWORD PTR MAPA_16QAM_LUT[r13+rcx*4]
	mov	DWORD PTR [rdx-56], eax
	mov	eax, DWORD PTR MAPA_16QAM_LUT[r13+rcx*4+4]
	mov	DWORD PTR [rdx-52], eax
	movzx	eax, BYTE PTR [r8-6]
	add	eax, eax
	movsxd	rcx, eax
	mov	eax, DWORD PTR MAPA_16QAM_LUT[r13+rcx*4]
	mov	DWORD PTR [rdx-48], eax
	mov	eax, DWORD PTR MAPA_16QAM_LUT[r13+rcx*4+4]
	mov	DWORD PTR [rdx-44], eax
	movzx	eax, BYTE PTR [r8-5]
	add	eax, eax
	movsxd	rcx, eax
	mov	eax, DWORD PTR MAPA_16QAM_LUT[r13+rcx*4]
	mov	DWORD PTR [rdx-40], eax
	mov	eax, DWORD PTR MAPA_16QAM_LUT[r13+rcx*4+4]
	mov	DWORD PTR [rdx-36], eax
	movzx	eax, BYTE PTR [r8-4]
	add	eax, eax
	movsxd	rcx, eax
	mov	eax, DWORD PTR MAPA_16QAM_LUT[r13+rcx*4]
	mov	DWORD PTR [rdx-32], eax
	mov	eax, DWORD PTR MAPA_16QAM_LUT[r13+rcx*4+4]
	mov	DWORD PTR [rdx-28], eax
	movzx	eax, BYTE PTR [r8-3]
	add	eax, eax
	movsxd	rcx, eax
	mov	eax, DWORD PTR MAPA_16QAM_LUT[r13+rcx*4]
	mov	DWORD PTR [rdx-24], eax
	mov	eax, DWORD PTR MAPA_16QAM_LUT[r13+rcx*4+4]
	mov	DWORD PTR [rdx-20], eax
	movzx	eax, BYTE PTR [r8-2]
	add	eax, eax
	sub	r9, 1
	movsxd	rcx, eax
	mov	eax, DWORD PTR MAPA_16QAM_LUT[r13+rcx*4]
	mov	DWORD PTR [rdx-16], eax
	mov	eax, DWORD PTR MAPA_16QAM_LUT[r13+rcx*4+4]
	mov	DWORD PTR [rdx-12], eax
	jne	$LL15@Generate24

; 185  : 
; 186  :     AddPilot(info->cMapped, info->cPilotAdded, bPilotSgn);

	lea	rcx, OFFSET FLAT:TxVector+112
	mov	edx, 38					; 00000026H
	lea	r8, OFFSET FLAT:TxVector+456
$LL29@Generate24:
	cmp	edx, 57					; 00000039H
	je	SHORT $LN28@Generate24
	cmp	edx, 43					; 0000002bH
	je	SHORT $LN28@Generate24
	mov	eax, DWORD PTR [rcx]
	add	rcx, 4
	mov	DWORD PTR [r8], eax
$LN28@Generate24:
	inc	edx
	add	r8, 4
	cmp	edx, 64					; 00000040H
	jb	SHORT $LL29@Generate24
	mov	edx, 1
	lea	r8, OFFSET FLAT:TxVector+308
	npad	1
$LL24@Generate24:
	cmp	edx, 7
	je	SHORT $LN23@Generate24
	cmp	edx, 21
	je	SHORT $LN23@Generate24
	mov	eax, DWORD PTR [rcx]
	add	rcx, 4
	mov	DWORD PTR [r8], eax
$LN23@Generate24:
	inc	edx
	add	r8, 4
	cmp	edx, 26
	jbe	SHORT $LL24@Generate24
	cmp	BYTE PTR bPilotSgn$[rsp], 0
	jne	SHORT $LN19@Generate24
	xor	esi, esi
	mov	eax, 10720				; 000029e0H
	mov	ecx, -10720				; ffffffffffffd620H
	mov	WORD PTR TxVector+332, ax
	mov	WORD PTR TxVector+334, si
	mov	WORD PTR TxVector+388, cx
	mov	WORD PTR TxVector+390, si
	mov	WORD PTR TxVector+532, ax
	mov	WORD PTR TxVector+534, si
	mov	WORD PTR TxVector+476, ax
	mov	WORD PTR TxVector+478, si
	jmp	SHORT $LN18@Generate24
$LN19@Generate24:
	xor	esi, esi
	mov	ecx, -10720				; ffffffffffffd620H
	mov	eax, 10720				; 000029e0H
	mov	WORD PTR TxVector+332, cx
	mov	WORD PTR TxVector+334, si
	mov	WORD PTR TxVector+388, ax
	mov	WORD PTR TxVector+390, si
	mov	WORD PTR TxVector+532, cx
	mov	WORD PTR TxVector+534, si
	mov	WORD PTR TxVector+476, cx
	mov	WORD PTR TxVector+478, si
$LN18@Generate24:

; 187  :     IFFT64x(info->cPilotAdded, info->cSymbol + COMPLEX_GI);

	lea	rcx, QWORD PTR temp$1582620[rsp]
	xor	edx, edx
	mov	r8d, 512				; 00000200H
	call	memset
	lea	rcx, QWORD PTR temp$1582620[rsp]
	lea	rdx, OFFSET FLAT:TxVector+304
	mov	r8d, 128				; 00000080H
	call	memcpy
	lea	rcx, QWORD PTR temp$1582620[rsp+384]
	lea	rdx, OFFSET FLAT:TxVector+432
	mov	r8d, 128				; 00000080H
	call	memcpy
	lea	rcx, QWORD PTR temp$1582620[rsp]
	call	??$IFFTSSEEx@$0IA@@@YAXPEAUvcs@@@Z	; IFFTSSEEx<128>
	lea	r11, OFFSET FLAT:?FFT128LUTMap@@3QBFB+2
	lea	rdx, OFFSET FLAT:TxVector+696
	lea	r8, OFFSET FLAT:TxVector+1208
	npad	12
$LL39@Generate24:
	movsx	rax, WORD PTR [r11-2]
	add	rdx, 16
	add	r11, 8
	cmp	rdx, r8
	mov	ecx, DWORD PTR temp$1582620[rsp+rax*4]
	movsx	rax, WORD PTR [r11-8]
	mov	DWORD PTR [rdx-24], ecx
	mov	ecx, DWORD PTR temp$1582620[rsp+rax*4]
	movsx	rax, WORD PTR [r11-6]
	mov	DWORD PTR [rdx-20], ecx
	mov	ecx, DWORD PTR temp$1582620[rsp+rax*4]
	movsx	rax, WORD PTR [r11-4]
	mov	DWORD PTR [rdx-16], ecx
	mov	ecx, DWORD PTR temp$1582620[rsp+rax*4]
	mov	DWORD PTR [rdx-12], ecx
	jl	SHORT $LL39@Generate24
	lea	rax, OFFSET FLAT:TxVector+688
	mov	ecx, 32					; 00000020H
	npad	7
$LL36@Generate24:
	movdqa	xmm0, XMMWORD PTR [rax]
	add	rax, 16
	sub	rcx, 1
	psllw	xmm0, 2
	movdqa	XMMWORD PTR [rax-16], xmm0
	jne	SHORT $LL36@Generate24

; 188  : 
; 189  :     CopyGI(info->cSymbol, info->cSymbol + 128);

	lea	rdi, OFFSET FLAT:TxVector+560
	lea	rdx, OFFSET FLAT:TxVector+1072
	mov	r8d, 128				; 00000080H
	mov	rcx, rdi
	call	memcpy

; 190  :     Window(info->cSymbol, pcLast);

	sar	WORD PTR TxVector+562, 2
	sar	WORD PTR TxVector+564, 1
	sar	WORD PTR TxVector+566, 1
	movzx	ecx, WORD PTR TxVector+568
	movzx	r11d, WORD PTR TxVector+1072
	movzx	eax, cx
	sar	r11w, 2
	sar	ax, 2
	mov	WORD PTR TxVector+560, r11w
	sub	cx, ax
	mov	WORD PTR TxVector+568, cx
	movzx	ecx, WORD PTR TxVector+570
	movzx	eax, cx
	sar	ax, 2
	sub	cx, ax
	mov	WORD PTR TxVector+570, cx
	movzx	ecx, WORD PTR TxVector+688
	movdqa	xmm0, XMMWORD PTR TxVector+560
	paddsw	xmm0, XMMWORD PTR [r12]
	movdqa	XMMWORD PTR TxVector+560, xmm0
	movzx	eax, WORD PTR [r12]
	add	WORD PTR TxVector+560, ax
	movzx	eax, WORD PTR [r12+2]
	add	WORD PTR TxVector+562, ax
	movzx	eax, cx
	sar	ax, 2
	sub	cx, ax
	mov	WORD PTR [r12], cx
	movzx	ecx, WORD PTR TxVector+690
	movzx	eax, cx
	sar	ax, 2
	sub	cx, ax
	mov	WORD PTR [r12+2], cx
	movzx	eax, WORD PTR TxVector+692
	sar	ax, 1
	mov	WORD PTR [r12+4], ax
	movzx	eax, WORD PTR TxVector+694
	sar	ax, 1
	mov	WORD PTR [r12+6], ax
	movzx	eax, WORD PTR TxVector+696
	sar	ax, 2
	mov	WORD PTR [r12+8], ax
	movzx	eax, WORD PTR TxVector+698
	mov	WORD PTR [r12+12], si
	sar	ax, 2
	mov	WORD PTR [r12+14], si
	mov	WORD PTR [r12+10], ax

; 191  :     return UpsampleAndCopyNT(info, pcOutput, info->cSymbol, COMPLEX_PER_OFDM_SYMBOL);

	mov	eax, DWORD PTR TxVector
	mov	r12, QWORD PTR [rsp+704]
	cmp	eax, 44					; 0000002cH
	jne	$LN78@Generate24
	movdqa	xmm2, XMMWORD PTR TxVector+560
	movaps	XMMWORD PTR [rsp+688], xmm6
	xorps	xmm0, xmm0
	lea	edx, QWORD PTR [rax-39]
	movdqa	xmm3, xmm2
	movaps	XMMWORD PTR [rsp+672], xmm7
	movdqa	xmm7, XMMWORD PTR ?_ODD_MASK@@3QBU_COMPLEX16@@B
	movaps	XMMWORD PTR [rsp+656], xmm8
	movdqa	xmm8, XMMWORD PTR ?_EVEN_MASK@@3QBU_COMPLEX16@@B
	movaps	XMMWORD PTR [rsp+640], xmm9
	movdqa	xmm9, XMMWORD PTR ?g_coff1_row0@@3QAY07$$CBFA
	movaps	XMMWORD PTR [rsp+624], xmm10
	movdqa	xmm10, XMMWORD PTR ?g_coff1_row1@@3QAY07$$CBFA
	pmulhrsw xmm2, xmm10
	pmulhrsw xmm3, xmm9
	movdqa	xmm1, xmm3
	movaps	XMMWORD PTR [rsp+608], xmm11
	movdqa	xmm11, XMMWORD PTR ?g_coff1_row0@@3QAY07$$CBFA+16
	palignr	xmm1, xmm0, 12
	pshufd	xmm0, xmm1, 177				; 000000b1H
	movaps	XMMWORD PTR [rsp+592], xmm12
	movdqa	xmm12, XMMWORD PTR ?g_coff1_row1@@3QAY07$$CBFA+16
	movaps	XMMWORD PTR [rsp+576], xmm13
	paddw	xmm1, xmm0
	pshufd	xmm0, xmm2, 177				; 000000b1H
	paddw	xmm2, xmm0
	pand	xmm1, xmm7
	movdqa	xmm13, XMMWORD PTR ?g_coff1_row0@@3QAY07$$CBFA+32
	movaps	XMMWORD PTR [rsp+560], xmm14
	movdqa	xmm14, XMMWORD PTR ?g_coff1_row1@@3QAY07$$CBFA+32
	pand	xmm2, xmm8
	por	xmm1, xmm2
	movdqa	xmm2, XMMWORD PTR TxVector+576
	movdqu	XMMWORD PTR TxVector+1200, xmm1
	movdqa	xmm4, xmm2
	pmulhrsw xmm2, xmm12
	pmulhrsw xmm4, xmm11
	movdqa	xmm1, xmm4
	palignr	xmm1, xmm3, 12
	movdqa	xmm3, XMMWORD PTR TxVector+592
	pshufd	xmm0, xmm1, 177				; 000000b1H
	movdqa	xmm5, xmm3
	paddw	xmm1, xmm0
	pshufd	xmm0, xmm2, 177				; 000000b1H
	pmulhrsw xmm5, xmm13
	paddw	xmm2, xmm0
	pand	xmm1, xmm7
	pand	xmm2, xmm8
	por	xmm1, xmm2
	movdqa	xmm2, xmm5
	palignr	xmm2, xmm4, 12
	movdqa	xmm4, XMMWORD PTR TxVector+608
	movdqu	XMMWORD PTR TxVector+1216, xmm1
	movdqa	xmm1, xmm3
	pshufd	xmm0, xmm2, 177				; 000000b1H
	pmulhrsw xmm1, xmm14
	paddw	xmm2, xmm0
	pshufd	xmm0, xmm1, 177				; 000000b1H
	paddw	xmm1, xmm0
	pand	xmm2, xmm7
	pand	xmm1, xmm8
	por	xmm2, xmm1
	movdqu	XMMWORD PTR TxVector+1232, xmm2
	movdqa	xmm2, xmm4
	palignr	xmm2, xmm3, 8
	movdqa	xmm3, XMMWORD PTR TxVector+624
	movdqa	xmm6, xmm2
	pmulhrsw xmm2, xmm10
	pmulhrsw xmm6, xmm9
	movdqa	xmm1, xmm6
	palignr	xmm1, xmm5, 12
	pshufd	xmm0, xmm1, 177				; 000000b1H
	paddw	xmm1, xmm0
	pshufd	xmm0, xmm2, 177				; 000000b1H
	paddw	xmm2, xmm0
	pand	xmm1, xmm7
	pand	xmm2, xmm8
	por	xmm1, xmm2
	movdqa	xmm2, xmm3
	palignr	xmm2, xmm4, 8
	movdqu	XMMWORD PTR TxVector+1244, xmm1
	movdqa	xmm4, xmm2
	pmulhrsw xmm2, xmm12
	lea	rcx, OFFSET FLAT:TxVector+1276
	pmulhrsw xmm4, xmm11
	lea	rax, OFFSET FLAT:TxVector+640
	lea	r8d, QWORD PTR [rdx+2]
	movdqa	xmm1, xmm4
	palignr	xmm1, xmm6, 12
	pshufd	xmm0, xmm1, 177				; 000000b1H
	paddw	xmm1, xmm0
	pshufd	xmm0, xmm2, 177				; 000000b1H
	paddw	xmm2, xmm0
	pand	xmm1, xmm7
	pand	xmm2, xmm8
	por	xmm1, xmm2
	movdqa	xmm2, XMMWORD PTR TxVector+640
	palignr	xmm2, xmm3, 8
	movdqu	XMMWORD PTR TxVector+1260, xmm1
	movdqa	xmm5, xmm2
	pmulhrsw xmm2, xmm14
	pmulhrsw xmm5, xmm13
	movdqa	xmm3, xmm5
	palignr	xmm3, xmm4, 12
	pshufd	xmm0, xmm3, 177				; 000000b1H
	paddw	xmm3, xmm0
	pshufd	xmm0, xmm2, 177				; 000000b1H
	paddw	xmm2, xmm0
	pand	xmm3, xmm7
	pand	xmm2, xmm8
	por	xmm3, xmm2
	npad	6
$LL83@Generate24:
	movdqu	XMMWORD PTR [rcx], xmm3
	movdqa	xmm2, XMMWORD PTR [rax]
	lea	rax, QWORD PTR [rdx+1]
	add	rax, rax
	movdqa	xmm3, xmm2
	pmulhrsw xmm2, xmm10
	pmulhrsw xmm3, xmm9
	movdqa	xmm1, xmm3
	palignr	xmm1, xmm5, 12
	pshufd	xmm0, xmm1, 177				; 000000b1H
	paddw	xmm1, xmm0
	pshufd	xmm0, xmm2, 177				; 000000b1H
	paddw	xmm2, xmm0
	pand	xmm1, xmm7
	pand	xmm2, xmm8
	por	xmm1, xmm2
	movdqu	XMMWORD PTR [rcx+12], xmm1
	movdqa	xmm2, XMMWORD PTR [rdi+rax*8]
	lea	rax, QWORD PTR [rdx+2]
	add	rax, rax
	movdqa	xmm4, xmm2
	pmulhrsw xmm2, xmm12
	pmulhrsw xmm4, xmm11
	movdqa	xmm1, xmm4
	palignr	xmm1, xmm3, 12
	pshufd	xmm0, xmm1, 177				; 000000b1H
	paddw	xmm1, xmm0
	pshufd	xmm0, xmm2, 177				; 000000b1H
	paddw	xmm2, xmm0
	pand	xmm1, xmm7
	pand	xmm2, xmm8
	por	xmm1, xmm2
	movdqu	XMMWORD PTR [rcx+28], xmm1
	movdqa	xmm3, XMMWORD PTR [rdi+rax*8]
	lea	rax, QWORD PTR [rdx+3]
	add	rax, rax
	movdqa	xmm5, xmm3
	movdqa	xmm1, xmm3
	pmulhrsw xmm1, xmm14
	pmulhrsw xmm5, xmm13
	movdqa	xmm2, xmm5
	palignr	xmm2, xmm4, 12
	pshufd	xmm0, xmm2, 177				; 000000b1H
	paddw	xmm2, xmm0
	pshufd	xmm0, xmm1, 177				; 000000b1H
	paddw	xmm1, xmm0
	pand	xmm2, xmm7
	pand	xmm1, xmm8
	por	xmm2, xmm1
	movdqu	XMMWORD PTR [rcx+44], xmm2
	movdqa	xmm4, XMMWORD PTR [rdi+rax*8]
	lea	rax, QWORD PTR [rdx+4]
	add	rax, rax
	add	rdx, 5
	movdqa	xmm2, xmm4
	palignr	xmm2, xmm3, 8
	movdqa	xmm6, xmm2
	pmulhrsw xmm2, xmm10
	pmulhrsw xmm6, xmm9
	movdqa	xmm1, xmm6
	palignr	xmm1, xmm5, 12
	pshufd	xmm0, xmm1, 177				; 000000b1H
	paddw	xmm1, xmm0
	pshufd	xmm0, xmm2, 177				; 000000b1H
	paddw	xmm2, xmm0
	pand	xmm1, xmm7
	pand	xmm2, xmm8
	por	xmm1, xmm2
	movdqu	XMMWORD PTR [rcx+56], xmm1
	movdqa	xmm3, XMMWORD PTR [rdi+rax*8]
	movdqa	xmm2, xmm3
	palignr	xmm2, xmm4, 8
	movdqa	xmm4, xmm2
	pmulhrsw xmm2, xmm12
	pmulhrsw xmm4, xmm11
	movdqa	xmm1, xmm4
	palignr	xmm1, xmm6, 12
	pshufd	xmm0, xmm1, 177				; 000000b1H
	paddw	xmm1, xmm0
	pshufd	xmm0, xmm2, 177				; 000000b1H
	pand	xmm1, xmm7
	paddw	xmm2, xmm0
	mov	rax, rdx
	add	rcx, 88					; 00000058H
	add	rax, rax
	sub	r8, 1
	pand	xmm2, xmm8
	por	xmm1, xmm2
	lea	rax, QWORD PTR TxVector[r13+rax*8+560]
	movdqu	XMMWORD PTR [rcx-16], xmm1
	movdqa	xmm1, XMMWORD PTR [rax]
	palignr	xmm1, xmm3, 8
	movdqa	xmm5, xmm1
	pmulhrsw xmm1, xmm14
	pmulhrsw xmm5, xmm13
	movdqa	xmm3, xmm5
	palignr	xmm3, xmm4, 12
	pshufd	xmm0, xmm3, 177				; 000000b1H
	paddw	xmm3, xmm0
	pshufd	xmm0, xmm1, 177				; 000000b1H
	paddw	xmm1, xmm0
	pand	xmm3, xmm7
	pand	xmm1, xmm8
	por	xmm3, xmm1
	jne	$LL83@Generate24
	movaps	xmm14, XMMWORD PTR [rsp+560]
	movaps	xmm13, XMMWORD PTR [rsp+576]
	movaps	xmm12, XMMWORD PTR [rsp+592]
	movaps	xmm11, XMMWORD PTR [rsp+608]
	movaps	xmm10, XMMWORD PTR [rsp+624]
	movaps	xmm9, XMMWORD PTR [rsp+640]
	movaps	xmm8, XMMWORD PTR [rsp+656]
	movaps	xmm7, XMMWORD PTR [rsp+672]
	movaps	xmm6, XMMWORD PTR [rsp+688]
	movdqa	XMMWORD PTR rr1$1588914[rsp], xmm3
	mov	eax, DWORD PTR rr1$1588914[rsp]
	mov	DWORD PTR [rcx], eax
	mov	eax, DWORD PTR rr1$1588914[rsp+4]
	mov	DWORD PTR [rcx+4], eax
	mov	eax, DWORD PTR rr1$1588914[rsp+8]
	mov	DWORD PTR [rcx+8], eax
	lea	rax, OFFSET FLAT:TxVector+1200
	lea	ecx, QWORD PTR [r8+22]
	npad	3
$LL920@Generate24:
	movdqa	xmm1, XMMWORD PTR [rax]
	movdqa	xmm0, XMMWORD PTR [rax+16]
	add	rbx, 16
	add	rax, 32					; 00000020H
	sub	rcx, 1
	psraw	xmm1, 6
	psraw	xmm0, 6
	packsswb xmm1, xmm0
	movntdq	XMMWORD PTR [rbx-16], xmm1
	jne	SHORT $LL920@Generate24
	mov	eax, 176				; 000000b0H

; 192  : }

	add	rsp, 712				; 000002c8H
	pop	r13
	pop	rdi
	pop	rsi
	pop	rbx
	ret	0

; 191  :     return UpsampleAndCopyNT(info, pcOutput, info->cSymbol, COMPLEX_PER_OFDM_SYMBOL);

$LN78@Generate24:
	cmp	eax, 40					; 00000028H
	jne	SHORT $LN73@Generate24
	mov	eax, 20
	npad	10
$LL965@Generate24:
	movdqa	xmm1, XMMWORD PTR [rdi]
	movdqa	xmm0, XMMWORD PTR [rdi+16]
	add	rbx, 16
	add	rdi, 32					; 00000020H
	sub	rax, 1
	psraw	xmm1, 6
	psraw	xmm0, 6
	packsswb xmm1, xmm0
	movntdq	XMMWORD PTR [rbx-16], xmm1
	jne	SHORT $LL965@Generate24
	mov	eax, 160				; 000000a0H

; 192  : }

	add	rsp, 712				; 000002c8H
	pop	r13
	pop	rdi
	pop	rsi
	pop	rbx
	ret	0

; 191  :     return UpsampleAndCopyNT(info, pcOutput, info->cSymbol, COMPLEX_PER_OFDM_SYMBOL);

$LN73@Generate24:
	mov	eax, esi

; 192  : }

	add	rsp, 712				; 000002c8H
	pop	r13
	pop	rdi
	pop	rsi
	pop	rbx
	ret	0
?Generate24MSymbol@@YAIPEAU_BB11A_TX_VECTOR@@PEAU_COMPLEX8@@PEAU_COMPLEX16@@PEADE@Z ENDP ; Generate24MSymbol
PUBLIC	?Dot11aTxFrameEncode24@@YAJPEAU_BB11A_TX_VECTOR@@PEAU__PACKET_BASE@@@Z ; Dot11aTxFrameEncode24
;	COMDAT pdata
; File c:\sorasdk1.7\inc\vector128.h
pdata	SEGMENT
$pdata$?Dot11aTxFrameEncode24@@YAJPEAU_BB11A_TX_VECTOR@@PEAU__PACKET_BASE@@@Z DD imagerel $LN3305
	DD	imagerel $LN3305+11
	DD	imagerel $unwind$?Dot11aTxFrameEncode24@@YAJPEAU_BB11A_TX_VECTOR@@PEAU__PACKET_BASE@@@Z
pdata	ENDS
;	COMDAT pdata
pdata	SEGMENT
$pdata$15$?Dot11aTxFrameEncode24@@YAJPEAU_BB11A_TX_VECTOR@@PEAU__PACKET_BASE@@@Z DD imagerel $LN3305+11
	DD	imagerel $LN3305+284
	DD	imagerel $chain$15$?Dot11aTxFrameEncode24@@YAJPEAU_BB11A_TX_VECTOR@@PEAU__PACKET_BASE@@@Z
pdata	ENDS
;	COMDAT pdata
pdata	SEGMENT
$pdata$16$?Dot11aTxFrameEncode24@@YAJPEAU_BB11A_TX_VECTOR@@PEAU__PACKET_BASE@@@Z DD imagerel $LN3305+284
	DD	imagerel $LN3305+1475
	DD	imagerel $chain$16$?Dot11aTxFrameEncode24@@YAJPEAU_BB11A_TX_VECTOR@@PEAU__PACKET_BASE@@@Z
pdata	ENDS
;	COMDAT pdata
pdata	SEGMENT
$pdata$17$?Dot11aTxFrameEncode24@@YAJPEAU_BB11A_TX_VECTOR@@PEAU__PACKET_BASE@@@Z DD imagerel $LN3305+1475
	DD	imagerel $LN3305+6811
	DD	imagerel $chain$17$?Dot11aTxFrameEncode24@@YAJPEAU_BB11A_TX_VECTOR@@PEAU__PACKET_BASE@@@Z
pdata	ENDS
;	COMDAT pdata
pdata	SEGMENT
$pdata$18$?Dot11aTxFrameEncode24@@YAJPEAU_BB11A_TX_VECTOR@@PEAU__PACKET_BASE@@@Z DD imagerel $LN3305+6811
	DD	imagerel $LN3305+6987
	DD	imagerel $chain$18$?Dot11aTxFrameEncode24@@YAJPEAU_BB11A_TX_VECTOR@@PEAU__PACKET_BASE@@@Z
pdata	ENDS
;	COMDAT xdata
xdata	SEGMENT
$chain$18$?Dot11aTxFrameEncode24@@YAJPEAU_BB11A_TX_VECTOR@@PEAU__PACKET_BASE@@@Z DD 021H
	DD	imagerel $LN3305
	DD	imagerel $LN3305+11
	DD	imagerel $unwind$?Dot11aTxFrameEncode24@@YAJPEAU_BB11A_TX_VECTOR@@PEAU__PACKET_BASE@@@Z
xdata	ENDS
;	COMDAT xdata
xdata	SEGMENT
$chain$17$?Dot11aTxFrameEncode24@@YAJPEAU_BB11A_TX_VECTOR@@PEAU__PACKET_BASE@@@Z DD 021H
	DD	imagerel $LN3305+11
	DD	imagerel $LN3305+284
	DD	imagerel $chain$15$?Dot11aTxFrameEncode24@@YAJPEAU_BB11A_TX_VECTOR@@PEAU__PACKET_BASE@@@Z
xdata	ENDS
;	COMDAT xdata
xdata	SEGMENT
$chain$16$?Dot11aTxFrameEncode24@@YAJPEAU_BB11A_TX_VECTOR@@PEAU__PACKET_BASE@@@Z DD 020921H
	DD	026f809H
	DD	imagerel $LN3305+11
	DD	imagerel $LN3305+284
	DD	imagerel $chain$15$?Dot11aTxFrameEncode24@@YAJPEAU_BB11A_TX_VECTOR@@PEAU__PACKET_BASE@@@Z
xdata	ENDS
;	COMDAT xdata
xdata	SEGMENT
$chain$15$?Dot11aTxFrameEncode24@@YAJPEAU_BB11A_TX_VECTOR@@PEAU__PACKET_BASE@@@Z DD 020f121H
	DD	027e8f1H
	DD	028d8e8H
	DD	029c8dfH
	DD	02ab8d6H
	DD	02ba8cdH
	DD	02c98c4H
	DD	02d88b6H
	DD	02e78adH
	DD	02f68a5H
	DD	060f425H
	DD	061e41bH
	DD	062d417H
	DD	063c413H
	DD	069740fH
	DD	0686408H
	DD	0665404H
	DD	imagerel $LN3305
	DD	imagerel $LN3305+11
	DD	imagerel $unwind$?Dot11aTxFrameEncode24@@YAJPEAU_BB11A_TX_VECTOR@@PEAU__PACKET_BASE@@@Z
xdata	ENDS
;	COMDAT xdata
xdata	SEGMENT
$unwind$?Dot11aTxFrameEncode24@@YAJPEAU_BB11A_TX_VECTOR@@PEAU__PACKET_BASE@@@Z DD 030b01H
	DD	064010bH
	DD	03004H
; Function compile flags: /Ogtpy
; File c:\sorasdk1.7\src\bb\dot11a\dot11\atx_tpl_imp.h
xdata	ENDS
;	COMDAT ?Dot11aTxFrameEncode24@@YAJPEAU_BB11A_TX_VECTOR@@PEAU__PACKET_BASE@@@Z
_TEXT	SEGMENT
pcOutput$ = 32
tv8554 = 48
rr1$2818650 = 48
rr1$2809800 = 48
rgbSignal$2818158 = 48
$T2819495 = 48
SampleBufferSize$ = 64
rr1$2827228 = 80
temp$2826801 = 96
temp$2818917 = 96
info$ = 816
pPacket$ = 824
?Dot11aTxFrameEncode24@@YAJPEAU_BB11A_TX_VECTOR@@PEAU__PACKET_BASE@@@Z PROC ; Dot11aTxFrameEncode24, COMDAT

; 6    : {

$LN3305:
	mov	rax, rsp
	push	rbx
	sub	rsp, 800				; 00000320H
	mov	QWORD PTR [rax+8], rbp
	mov	QWORD PTR [rax+24], rsi

; 7    :     unsigned int uiScrambledSize;
; 8    :     unsigned int uiSymbolCountData;
; 9    :     unsigned int uiPilotIndex = 0;
; 10   :     unsigned int i;
; 11   :     char * pbInput;
; 12   :     PTXSAMPLE pcOutput;
; 13   :     ULONG PacketSizePlusCRC32 = pPacket->PacketSize + 4;

	mov	esi, DWORD PTR [rdx+20]
	mov	QWORD PTR [rax+32], rdi
	mov	QWORD PTR [rax-16], r12
	mov	QWORD PTR [rax-24], r13
	mov	QWORD PTR [rax-32], r14
	mov	r12, rdx
	add	esi, 4
	mov	QWORD PTR [rax-40], r15
	xor	r13d, r13d

; 14   : 
; 15   :     // ClearWindow(info->cWindow);
; 16   : 
; 17   :     uiScrambledSize = SERVICE_LEN_IN_BITS + PADDING_LEN_IN_BITS
; 18   :         + (PacketSizePlusCRC32 << BITS_PER_BYTE_SHIFT);
; 19   :     uiSymbolCountData = (uiScrambledSize + (DBPS - 1)) / DBPS;

	lea	ecx, DWORD PTR [rsi*8+117]
	mov	eax, -1431655765			; aaaaaaabH
	mov	r14d, r13d
	mul	ecx
	mov	ebp, edx
	shr	ebp, 6

; 20   : 
; 21   :     ULONG SignalBytes = GetSignalBytes(info, uiSymbolCountData);

	lea	edx, DWORD PTR [rbp+rbp*4+25]
	shl	edx, 5
	cmp	DWORD PTR TxVector, 44			; 0000002cH
	jne	SHORT $LN9@Dot11aTxFr@5
	mov	eax, -858993459				; cccccccdH
	mul	edx
	shr	edx, 3
	imul	edx, 11
$LN9@Dot11aTxFr@5:
	lea	ebx, DWORD PTR [rdx+rdx+16]

; 22   :     
; 23   :     ULONG SampleBufferSize = 0;
; 24   :     SoraPacketGetTxSampleBuffer(pPacket, (PTXSAMPLE *)&pcOutput, &SampleBufferSize);

	lea	r8, QWORD PTR SampleBufferSize$[rsp]
	lea	rdx, QWORD PTR pcOutput$[rsp]
	mov	rcx, r12
	mov	DWORD PTR SampleBufferSize$[rsp], r13d
	call	SoraPacketGetTxSampleBuffer

; 25   :     ASSERT(SampleBufferSize >= SignalBytes);
; 26   : 
; 27   :     ALIGN_WITH_RCB_BUFFER_PADDING_ZERO(pcOutput, SignalBytes);

	test	bl, 127					; 0000007fH
	je	SHORT $LN5@Dot11aTxFr@5
	mov	rdx, QWORD PTR pcOutput$[rsp]
	mov	ecx, ebx
	and	ebx, -128				; ffffff80H
	sub	ebx, -128				; ffffffffffffff80H
	test	rdx, rdx
	je	SHORT $LN5@Dot11aTxFr@5
	mov	r8d, ebx
	sub	r8d, ecx
	add	rcx, rdx
	xor	edx, edx
	call	memset
$LN5@Dot11aTxFr@5:
	movaps	XMMWORD PTR [rsp+752], xmm6
	movaps	XMMWORD PTR [rsp+736], xmm7
	movaps	XMMWORD PTR [rsp+720], xmm8

; 28   :     SoraPacketSetSignalLength (pPacket, SignalBytes);	

	mov	edx, ebx
	mov	rcx, r12
	movaps	XMMWORD PTR [rsp+704], xmm9
	movaps	XMMWORD PTR [rsp+688], xmm10
	movaps	XMMWORD PTR [rsp+672], xmm11
	movaps	XMMWORD PTR [rsp+656], xmm12
	movaps	XMMWORD PTR [rsp+640], xmm13
	movaps	XMMWORD PTR [rsp+624], xmm14
	call	SoraPacketSetSignalLength

; 29   : 	
; 30   :     // Copy preamble
; 31   :     pcOutput += CopyPreamble16_NT(info, pcOutput, info->cWindow);

	mov	eax, DWORD PTR TxVector
	mov	r11, QWORD PTR pcOutput$[rsp]
	lea	r15, OFFSET FLAT:TxVector+1200
	cmp	eax, 44					; 0000002cH
	jne	$LN20@Dot11aTxFr@5
	movaps	XMMWORD PTR [rsp+608], xmm15
	lea	r9, OFFSET FLAT:PREAMBLE40_11A_LUT+32
	mov	ebx, 640				; 00000280H
	xorps	xmm15, xmm15
	lea	r10d, QWORD PTR [rax-40]
	npad	7
$LL19@Dot11aTxFr@5:
	movdqa	xmm7, XMMWORD PTR ?_ODD_MASK@@3QBU_COMPLEX16@@B
	movdqa	xmm8, XMMWORD PTR ?_EVEN_MASK@@3QBU_COMPLEX16@@B
	movdqa	xmm2, XMMWORD PTR [r9-32]
	lea	r8, QWORD PTR [r9-32]
	mov	edx, 5
	movdqa	xmm9, XMMWORD PTR ?g_coff1_row0@@3QAY07$$CBFA
	movdqa	xmm10, XMMWORD PTR ?g_coff1_row1@@3QAY07$$CBFA
	movdqa	xmm11, XMMWORD PTR ?g_coff1_row0@@3QAY07$$CBFA+16
	movdqa	xmm12, XMMWORD PTR ?g_coff1_row1@@3QAY07$$CBFA+16
	movdqa	xmm5, XMMWORD PTR [r9+16]
	movdqa	xmm13, XMMWORD PTR ?g_coff1_row0@@3QAY07$$CBFA+32
	movdqa	xmm14, XMMWORD PTR ?g_coff1_row1@@3QAY07$$CBFA+32
	movdqa	xmm4, xmm2
	pmulhrsw xmm2, xmm10
	pmulhrsw xmm4, xmm9
	movdqa	xmm1, xmm4
	palignr	xmm1, xmm15, 12
	pshufd	xmm0, xmm1, 177				; 000000b1H
	paddw	xmm1, xmm0
	pshufd	xmm0, xmm2, 177				; 000000b1H
	paddw	xmm2, xmm0
	pand	xmm1, xmm7
	pand	xmm2, xmm8
	por	xmm1, xmm2
	movdqa	xmm2, XMMWORD PTR [r9-16]
	movdqu	XMMWORD PTR TxVector+1200, xmm1
	movdqa	xmm3, xmm2
	pmulhrsw xmm2, xmm12
	pmulhrsw xmm3, xmm11
	movdqa	xmm1, xmm3
	palignr	xmm1, xmm4, 12
	movdqa	xmm4, XMMWORD PTR [r9]
	pshufd	xmm0, xmm1, 177				; 000000b1H
	movdqa	xmm6, xmm4
	paddw	xmm1, xmm0
	pshufd	xmm0, xmm2, 177				; 000000b1H
	pmulhrsw xmm6, xmm13
	paddw	xmm2, xmm0
	pand	xmm1, xmm7
	pand	xmm2, xmm8
	por	xmm1, xmm2
	movdqa	xmm2, xmm6
	palignr	xmm2, xmm3, 12
	movdqu	XMMWORD PTR TxVector+1216, xmm1
	movdqa	xmm1, xmm4
	movdqa	xmm3, xmm5
	pmulhrsw xmm1, xmm14
	pshufd	xmm0, xmm2, 177				; 000000b1H
	palignr	xmm3, xmm4, 8
	movdqa	xmm4, xmm3
	paddw	xmm2, xmm0
	pshufd	xmm0, xmm1, 177				; 000000b1H
	pmulhrsw xmm3, xmm10
	paddw	xmm1, xmm0
	pand	xmm2, xmm7
	pmulhrsw xmm4, xmm9
	pand	xmm1, xmm8
	por	xmm2, xmm1
	movdqa	xmm1, xmm4
	palignr	xmm1, xmm6, 12
	movdqu	XMMWORD PTR TxVector+1232, xmm2
	pshufd	xmm0, xmm1, 177				; 000000b1H
	paddw	xmm1, xmm0
	pshufd	xmm0, xmm3, 177				; 000000b1H
	pand	xmm1, xmm7
	paddw	xmm3, xmm0
	pand	xmm3, xmm8
	por	xmm1, xmm3
	movdqa	xmm3, XMMWORD PTR [r9+32]
	movdqu	XMMWORD PTR TxVector+1244, xmm1
	movdqa	xmm2, xmm3
	palignr	xmm2, xmm5, 8
	movdqa	xmm5, xmm2
	pmulhrsw xmm2, xmm12
	pmulhrsw xmm5, xmm11
	movdqa	xmm1, xmm5
	palignr	xmm1, xmm4, 12
	pshufd	xmm0, xmm1, 177				; 000000b1H
	paddw	xmm1, xmm0
	pshufd	xmm0, xmm2, 177				; 000000b1H
	pand	xmm1, xmm7
	paddw	xmm2, xmm0
	lea	rax, QWORD PTR [r9+48]
	lea	rcx, OFFSET FLAT:TxVector+1276
	pand	xmm2, xmm8
	lea	edi, QWORD PTR [rdx+2]
	por	xmm1, xmm2
	movdqu	XMMWORD PTR TxVector+1260, xmm1
	movdqa	xmm1, XMMWORD PTR [rax]
	palignr	xmm1, xmm3, 8
	movdqa	xmm6, xmm1
	pmulhrsw xmm1, xmm14
	pmulhrsw xmm6, xmm13
	movdqa	xmm2, xmm6
	palignr	xmm2, xmm5, 12
	pshufd	xmm0, xmm2, 177				; 000000b1H
	paddw	xmm2, xmm0
	pshufd	xmm0, xmm1, 177				; 000000b1H
	paddw	xmm1, xmm0
	pand	xmm2, xmm7
	pand	xmm1, xmm8
	por	xmm2, xmm1
	npad	4
$LL25@Dot11aTxFr@5:
	movdqu	XMMWORD PTR [rcx], xmm2
	movdqa	xmm2, XMMWORD PTR [rax]
	lea	rax, QWORD PTR [rdx+1]
	add	rax, rax
	movdqa	xmm3, xmm2
	pmulhrsw xmm2, xmm10
	pmulhrsw xmm3, xmm9
	movdqa	xmm1, xmm3
	palignr	xmm1, xmm6, 12
	pshufd	xmm0, xmm1, 177				; 000000b1H
	paddw	xmm1, xmm0
	pshufd	xmm0, xmm2, 177				; 000000b1H
	paddw	xmm2, xmm0
	pand	xmm1, xmm7
	pand	xmm2, xmm8
	por	xmm1, xmm2
	movdqa	xmm2, XMMWORD PTR [r8+rax*8]
	lea	rax, QWORD PTR [rdx+2]
	movdqu	XMMWORD PTR [rcx+12], xmm1
	movdqa	xmm4, xmm2
	pmulhrsw xmm2, xmm12
	add	rax, rax
	pmulhrsw xmm4, xmm11
	movdqa	xmm1, xmm4
	palignr	xmm1, xmm3, 12
	movdqa	xmm3, XMMWORD PTR [r8+rax*8]
	lea	rax, QWORD PTR [rdx+3]
	pshufd	xmm0, xmm1, 177				; 000000b1H
	add	rax, rax
	movdqa	xmm5, xmm3
	paddw	xmm1, xmm0
	pshufd	xmm0, xmm2, 177				; 000000b1H
	pmulhrsw xmm5, xmm13
	paddw	xmm2, xmm0
	pand	xmm1, xmm7
	pand	xmm2, xmm8
	por	xmm1, xmm2
	movdqa	xmm2, xmm5
	palignr	xmm2, xmm4, 12
	movdqa	xmm4, XMMWORD PTR [r8+rax*8]
	movdqu	XMMWORD PTR [rcx+28], xmm1
	movdqa	xmm1, xmm3
	pshufd	xmm0, xmm2, 177				; 000000b1H
	pmulhrsw xmm1, xmm14
	lea	rax, QWORD PTR [rdx+4]
	add	rax, rax
	add	rdx, 5
	paddw	xmm2, xmm0
	pshufd	xmm0, xmm1, 177				; 000000b1H
	paddw	xmm1, xmm0
	pand	xmm2, xmm7
	pand	xmm1, xmm8
	por	xmm2, xmm1
	movdqu	XMMWORD PTR [rcx+44], xmm2
	movdqa	xmm2, xmm4
	palignr	xmm2, xmm3, 8
	movdqa	xmm3, XMMWORD PTR [r8+rax*8]
	movdqa	xmm6, xmm2
	pmulhrsw xmm2, xmm10
	pmulhrsw xmm6, xmm9
	movdqa	xmm1, xmm6
	palignr	xmm1, xmm5, 12
	pshufd	xmm0, xmm1, 177				; 000000b1H
	paddw	xmm1, xmm0
	pshufd	xmm0, xmm2, 177				; 000000b1H
	paddw	xmm2, xmm0
	pand	xmm1, xmm7
	pand	xmm2, xmm8
	por	xmm1, xmm2
	movdqa	xmm2, xmm3
	palignr	xmm2, xmm4, 8
	movdqu	XMMWORD PTR [rcx+56], xmm1
	movdqa	xmm4, xmm2
	pmulhrsw xmm2, xmm12
	pmulhrsw xmm4, xmm11
	movdqa	xmm1, xmm4
	palignr	xmm1, xmm6, 12
	pshufd	xmm0, xmm1, 177				; 000000b1H
	paddw	xmm1, xmm0
	pshufd	xmm0, xmm2, 177				; 000000b1H
	pand	xmm1, xmm7
	paddw	xmm2, xmm0
	mov	rax, rdx
	add	rcx, 88					; 00000058H
	pand	xmm2, xmm8
	shl	rax, 4
	por	xmm1, xmm2
	add	rax, r8
	sub	rdi, 1
	movdqu	XMMWORD PTR [rcx-16], xmm1
	movdqa	xmm1, XMMWORD PTR [rax]
	palignr	xmm1, xmm3, 8
	movdqa	xmm6, xmm1
	pmulhrsw xmm1, xmm14
	pmulhrsw xmm6, xmm13
	movdqa	xmm2, xmm6
	palignr	xmm2, xmm4, 12
	pshufd	xmm0, xmm2, 177				; 000000b1H
	paddw	xmm2, xmm0
	pshufd	xmm0, xmm1, 177				; 000000b1H
	paddw	xmm1, xmm0
	pand	xmm2, xmm7
	pand	xmm1, xmm8
	por	xmm2, xmm1
	jne	$LL25@Dot11aTxFr@5
	movdqa	XMMWORD PTR rr1$2809800[rsp], xmm2
	mov	eax, DWORD PTR rr1$2809800[rsp]
	lea	edx, QWORD PTR [rdi+22]
	mov	DWORD PTR [rcx], eax
	mov	eax, DWORD PTR rr1$2809800[rsp+4]
	mov	DWORD PTR [rcx+4], eax
	mov	eax, DWORD PTR rr1$2809800[rsp+8]
	mov	DWORD PTR [rcx+8], eax
	mov	rax, r15
	mov	rcx, r11
	npad	4
$LL862@Dot11aTxFr@5:
	movdqa	xmm1, XMMWORD PTR [rax]
	movdqa	xmm0, XMMWORD PTR [rax+16]
	add	rcx, 16
	add	rax, 32					; 00000020H
	sub	rdx, 1
	psraw	xmm1, 6
	psraw	xmm0, 6
	packsswb xmm1, xmm0
	movntdq	XMMWORD PTR [rcx-16], xmm1
	jne	SHORT $LL862@Dot11aTxFr@5
	add	r11, 352				; 00000160H
	add	r9, rbx
	sub	r10, 1
	jne	$LL19@Dot11aTxFr@5
	mov	r11, QWORD PTR pcOutput$[rsp]
	movaps	xmm15, XMMWORD PTR [rsp+608]
	mov	ebx, 704				; 000002c0H
	jmp	SHORT $LN14@Dot11aTxFr@5
$LN20@Dot11aTxFr@5:
	cmp	eax, 40					; 00000028H
	jne	SHORT $LN15@Dot11aTxFr@5
	lea	rax, OFFSET FLAT:PREAMBLE40_11A_LUT
	mov	ecx, 80					; 00000050H
	npad	12
$LL907@Dot11aTxFr@5:
	movdqa	xmm1, XMMWORD PTR [rax]
	movdqa	xmm0, XMMWORD PTR [rax+16]
	add	r11, 16
	add	rax, 32					; 00000020H
	sub	rcx, 1
	psraw	xmm1, 6
	psraw	xmm0, 6
	packsswb xmm1, xmm0
	movntdq	XMMWORD PTR [r11-16], xmm1
	jne	SHORT $LL907@Dot11aTxFr@5
	mov	r11, QWORD PTR pcOutput$[rsp]
	mov	ebx, 640				; 00000280H
	jmp	SHORT $LN14@Dot11aTxFr@5
$LN15@Dot11aTxFr@5:
	mov	ebx, r13d
$LN14@Dot11aTxFr@5:
	mov	eax, 2513				; 000009d1H

; 32   : 
; 33   :     ConvEncodeReset(info->bConvEncoderReg);
; 34   :     // Generate Signal
; 35   :     pcOutput += GenerateSignal(info, pcOutput, info->cWindow, SIGNAL_RATE,
; 36   :             (unsigned short)PacketSizePlusCRC32);

	movzx	edx, si
	xor	r8b, r8b
	mov	WORD PTR TxVector+6912, ax
	mov	eax, 1051				; 0000041bH
	shl	edx, 5
	mov	WORD PTR TxVector+6916, ax
	mov	eax, -643				; fffffffffffffd7dH
	or	edx, 9
	mov	WORD PTR TxVector+6918, ax
	mov	eax, -28
	mov	ecx, edx
	mov	WORD PTR TxVector+6920, ax
	shr	ecx, 16
	mov	eax, -645				; fffffffffffffd7bH
	mov	WORD PTR TxVector+6922, ax
	xor	ecx, edx
	mov	eax, ebx
	lea	rbx, QWORD PTR [r11+rax*2]
	mov	eax, ecx
	mov	WORD PTR TxVector+6914, r13w
	shr	eax, 8
	mov	WORD PTR TxVector+6924, r13w
	mov	WORD PTR TxVector+6926, r13w
	xor	ecx, eax
	mov	QWORD PTR pcOutput$[rsp], rbx
	lea	r9, OFFSET FLAT:TxVector+25
	mov	eax, ecx
	lea	r10, QWORD PTR rgbSignal$2818158[rsp]
	mov	r11d, 3
	shr	eax, 4
	lea	rsi, OFFSET FLAT:__ImageBase
	xor	ecx, eax
	mov	eax, ecx
	shr	eax, 2
	xor	ecx, eax
	lea	eax, DWORD PTR [rcx+rcx]
	xor	eax, ecx
	and	eax, 2
	shl	eax, 16
	or	eax, edx
	mov	DWORD PTR rgbSignal$2818158[rsp], eax
	npad	5
$LL960@Dot11aTxFr@5:
	movzx	edx, BYTE PTR [r10]
	movzx	eax, r8b
	add	r9, 2
	shl	eax, 8
	movzx	r8d, dl
	inc	r10
	movsxd	rcx, eax
	shr	r8b, 2
	or	rcx, rdx
	sub	r11, 1
	movzx	eax, WORD PTR CONV_ENCODER_1_2_LUT[rsi+rcx*2]
	mov	WORD PTR [r9-2], ax
	mov	BYTE PTR TxVector+24, r8b
	jne	SHORT $LL960@Dot11aTxFr@5
	movzx	eax, BYTE PTR TxVector+25
	mov	edx, 256				; 00000100H
	lea	r11, OFFSET FLAT:TxVector+26
	lea	ecx, DWORD PTR [rax+rax*2]
	lea	eax, DWORD PTR [rcx+rcx]
	cdqe
	movzx	r8d, WORD PTR INTERLEAVE_6M_LUT[rsi+rax*2]
	movzx	r9d, WORD PTR INTERLEAVE_6M_LUT[rsi+rax*2+2]
	movzx	r10d, WORD PTR INTERLEAVE_6M_LUT[rsi+rax*2+4]
	mov	WORD PTR TxVector+61, r8w
	mov	WORD PTR TxVector+63, r9w
	mov	WORD PTR TxVector+65, r10w
	npad	8
$LL965@Dot11aTxFr@5:
	movzx	eax, BYTE PTR [r11]
	inc	r11
	add	eax, edx
	add	edx, 256				; 00000100H
	lea	eax, DWORD PTR [rax+rax*2]
	add	eax, eax
	or	r8w, WORD PTR INTERLEAVE_6M_LUT[rsi+rax*2]
	or	r9w, WORD PTR INTERLEAVE_6M_LUT[rsi+rax*2+2]
	or	r10w, WORD PTR INTERLEAVE_6M_LUT[rsi+rax*2+4]
	mov	WORD PTR TxVector+61, r8w
	mov	WORD PTR TxVector+63, r9w
	mov	WORD PTR TxVector+65, r10w
	cmp	edx, 1536				; 00000600H
	jb	SHORT $LL965@Dot11aTxFr@5
	lea	r10, OFFSET FLAT:TxVector+112
	lea	r8, OFFSET FLAT:TxVector+61
	mov	r9d, 6
	mov	rdx, r10
	npad	10
$LL970@Dot11aTxFr@5:
	movzx	eax, BYTE PTR [r8]
	add	rdx, 32					; 00000020H
	inc	r8
	shl	eax, 3
	sub	r9, 1
	movsxd	rcx, eax
	mov	rax, QWORD PTR MAPA_BPSK_LUT[rsi+rcx*4]
	mov	QWORD PTR [rdx-32], rax
	mov	rax, QWORD PTR MAPA_BPSK_LUT[rsi+rcx*4+8]
	mov	QWORD PTR [rdx-24], rax
	mov	rax, QWORD PTR MAPA_BPSK_LUT[rsi+rcx*4+16]
	mov	QWORD PTR [rdx-16], rax
	mov	rax, QWORD PTR MAPA_BPSK_LUT[rsi+rcx*4+24]
	mov	QWORD PTR [rdx-8], rax
	jne	SHORT $LL970@Dot11aTxFr@5
	mov	rcx, r10
	mov	edx, 38					; 00000026H
	lea	r8, OFFSET FLAT:TxVector+456
$LL984@Dot11aTxFr@5:
	cmp	edx, 57					; 00000039H
	je	SHORT $LN983@Dot11aTxFr@5
	cmp	edx, 43					; 0000002bH
	je	SHORT $LN983@Dot11aTxFr@5
	mov	eax, DWORD PTR [rcx]
	add	rcx, 4
	mov	DWORD PTR [r8], eax
$LN983@Dot11aTxFr@5:
	inc	edx
	add	r8, 4
	cmp	edx, 64					; 00000040H
	jb	SHORT $LL984@Dot11aTxFr@5
	mov	edx, 1
	lea	r8, OFFSET FLAT:TxVector+308
$LL979@Dot11aTxFr@5:
	cmp	edx, 7
	je	SHORT $LN978@Dot11aTxFr@5
	cmp	edx, 21
	je	SHORT $LN978@Dot11aTxFr@5
	mov	eax, DWORD PTR [rcx]
	add	rcx, 4
	mov	DWORD PTR [r8], eax
$LN978@Dot11aTxFr@5:
	inc	edx
	add	r8, 4
	cmp	edx, 26
	jbe	SHORT $LL979@Dot11aTxFr@5
	mov	eax, 10720				; 000029e0H
	mov	ecx, -10720				; ffffffffffffd620H
	xor	edx, edx
	mov	WORD PTR TxVector+388, cx
	lea	rcx, QWORD PTR temp$2818917[rsp]
	mov	r8d, 512				; 00000200H
	mov	WORD PTR TxVector+332, ax
	mov	WORD PTR TxVector+334, r13w
	mov	WORD PTR TxVector+390, r13w
	mov	WORD PTR TxVector+532, ax
	mov	WORD PTR TxVector+534, r13w
	mov	WORD PTR TxVector+476, ax
	mov	WORD PTR TxVector+478, r13w
	call	memset
	lea	rcx, QWORD PTR temp$2818917[rsp]
	lea	rdx, OFFSET FLAT:TxVector+304
	mov	r8d, 128				; 00000080H
	call	memcpy
	lea	rcx, QWORD PTR temp$2818917[rsp+384]
	lea	rdx, OFFSET FLAT:TxVector+432
	mov	r8d, 128				; 00000080H
	call	memcpy
	lea	rcx, QWORD PTR temp$2818917[rsp]
	call	??$IFFTSSEEx@$0IA@@@YAXPEAUvcs@@@Z	; IFFTSSEEx<128>
	lea	r11, OFFSET FLAT:TxVector+688
	lea	rdx, OFFSET FLAT:?FFT128LUTMap@@3QBFB	; FFT128LUTMap
	mov	r8, r11
	lea	r9, OFFSET FLAT:?FFT128LUTMap@@3QBFB+256
	npad	7
$LL994@Dot11aTxFr@5:
	movsx	rax, WORD PTR [rdx]
	add	rdx, 2
	add	r8, 4
	cmp	rdx, r9
	mov	ecx, DWORD PTR temp$2818917[rsp+rax*4]
	mov	DWORD PTR [r8-4], ecx
	jl	SHORT $LL994@Dot11aTxFr@5
	mov	rax, r11
	mov	ecx, 32					; 00000020H
$LL991@Dot11aTxFr@5:
	movdqa	xmm0, XMMWORD PTR [rax]
	add	rax, 16
	sub	rcx, 1
	psllw	xmm0, 2
	movdqa	XMMWORD PTR [rax-16], xmm0
	jne	SHORT $LL991@Dot11aTxFr@5
	lea	rdi, OFFSET FLAT:TxVector+560
	lea	rdx, OFFSET FLAT:TxVector+1072
	mov	r8d, 128				; 00000080H
	mov	rcx, rdi
	call	memcpy
	movzx	ecx, WORD PTR TxVector+568
	sar	WORD PTR TxVector+562, 2
	sar	WORD PTR TxVector+564, 1
	sar	WORD PTR TxVector+566, 1
	movzx	r11d, WORD PTR TxVector+1072
	movzx	eax, cx
	sar	r11w, 2
	sar	ax, 2
	mov	WORD PTR TxVector+560, r11w
	sub	cx, ax
	mov	WORD PTR TxVector+568, cx
	movzx	ecx, WORD PTR TxVector+570
	movzx	eax, cx
	sar	ax, 2
	sub	cx, ax
	movzx	eax, WORD PTR TxVector+6912
	mov	WORD PTR TxVector+570, cx
	movzx	ecx, WORD PTR TxVector+688
	movdqa	xmm0, XMMWORD PTR TxVector+560
	paddsw	xmm0, XMMWORD PTR TxVector+6912
	mov	WORD PTR TxVector+6924, r13w
	mov	WORD PTR TxVector+6926, r13w
	movdqa	XMMWORD PTR TxVector+560, xmm0
	add	WORD PTR TxVector+560, ax
	movzx	eax, WORD PTR TxVector+6914
	add	WORD PTR TxVector+562, ax
	movzx	eax, cx
	sar	ax, 2
	sub	cx, ax
	mov	WORD PTR TxVector+6912, cx
	movzx	ecx, WORD PTR TxVector+690
	movzx	eax, cx
	sar	ax, 2
	sub	cx, ax
	movzx	eax, WORD PTR TxVector+692
	sar	ax, 1
	mov	WORD PTR TxVector+6914, cx
	mov	WORD PTR TxVector+6916, ax
	movzx	eax, WORD PTR TxVector+694
	sar	ax, 1
	mov	WORD PTR TxVector+6918, ax
	movzx	eax, WORD PTR TxVector+696
	sar	ax, 2
	mov	WORD PTR TxVector+6920, ax
	movzx	eax, WORD PTR TxVector+698
	sar	ax, 2
	mov	WORD PTR TxVector+6922, ax
	mov	eax, DWORD PTR TxVector
	cmp	eax, 44					; 0000002cH
	jne	$LN1033@Dot11aTxFr@5
	movdqa	xmm7, XMMWORD PTR ?_ODD_MASK@@3QBU_COMPLEX16@@B
	movdqa	xmm8, XMMWORD PTR ?_EVEN_MASK@@3QBU_COMPLEX16@@B
	movdqa	xmm2, XMMWORD PTR TxVector+560
	xorps	xmm0, xmm0
	lea	edx, QWORD PTR [rax-39]
	movdqa	xmm9, XMMWORD PTR ?g_coff1_row0@@3QAY07$$CBFA
	movdqa	xmm10, XMMWORD PTR ?g_coff1_row1@@3QAY07$$CBFA
	movdqa	xmm11, XMMWORD PTR ?g_coff1_row0@@3QAY07$$CBFA+16
	movdqa	xmm12, XMMWORD PTR ?g_coff1_row1@@3QAY07$$CBFA+16
	movdqa	xmm13, XMMWORD PTR ?g_coff1_row0@@3QAY07$$CBFA+32
	movdqa	xmm14, XMMWORD PTR ?g_coff1_row1@@3QAY07$$CBFA+32
	movdqa	xmm3, xmm2
	pmulhrsw xmm2, xmm10
	pmulhrsw xmm3, xmm9
	movdqa	xmm1, xmm3
	palignr	xmm1, xmm0, 12
	pshufd	xmm0, xmm1, 177				; 000000b1H
	paddw	xmm1, xmm0
	pshufd	xmm0, xmm2, 177				; 000000b1H
	paddw	xmm2, xmm0
	pand	xmm1, xmm7
	pand	xmm2, xmm8
	por	xmm1, xmm2
	movdqa	xmm2, XMMWORD PTR TxVector+576
	movdqu	XMMWORD PTR TxVector+1200, xmm1
	movdqa	xmm4, xmm2
	pmulhrsw xmm2, xmm12
	pmulhrsw xmm4, xmm11
	movdqa	xmm1, xmm4
	palignr	xmm1, xmm3, 12
	movdqa	xmm3, XMMWORD PTR TxVector+592
	pshufd	xmm0, xmm1, 177				; 000000b1H
	movdqa	xmm5, xmm3
	paddw	xmm1, xmm0
	pshufd	xmm0, xmm2, 177				; 000000b1H
	pmulhrsw xmm5, xmm13
	paddw	xmm2, xmm0
	pand	xmm1, xmm7
	pand	xmm2, xmm8
	por	xmm1, xmm2
	movdqa	xmm2, xmm5
	palignr	xmm2, xmm4, 12
	movdqa	xmm4, XMMWORD PTR TxVector+608
	movdqu	XMMWORD PTR TxVector+1216, xmm1
	movdqa	xmm1, xmm3
	pshufd	xmm0, xmm2, 177				; 000000b1H
	pmulhrsw xmm1, xmm14
	paddw	xmm2, xmm0
	pshufd	xmm0, xmm1, 177				; 000000b1H
	paddw	xmm1, xmm0
	pand	xmm2, xmm7
	pand	xmm1, xmm8
	por	xmm2, xmm1
	movdqu	XMMWORD PTR TxVector+1232, xmm2
	movdqa	xmm2, xmm4
	palignr	xmm2, xmm3, 8
	movdqa	xmm3, XMMWORD PTR TxVector+624
	movdqa	xmm6, xmm2
	pmulhrsw xmm2, xmm10
	pmulhrsw xmm6, xmm9
	movdqa	xmm1, xmm6
	palignr	xmm1, xmm5, 12
	pshufd	xmm0, xmm1, 177				; 000000b1H
	paddw	xmm1, xmm0
	pshufd	xmm0, xmm2, 177				; 000000b1H
	paddw	xmm2, xmm0
	pand	xmm1, xmm7
	pand	xmm2, xmm8
	por	xmm1, xmm2
	movdqa	xmm2, xmm3
	palignr	xmm2, xmm4, 8
	movdqu	XMMWORD PTR TxVector+1244, xmm1
	movdqa	xmm4, xmm2
	pmulhrsw xmm2, xmm12
	pmulhrsw xmm4, xmm11
	movdqa	xmm1, xmm4
	palignr	xmm1, xmm6, 12
	pshufd	xmm0, xmm1, 177				; 000000b1H
	paddw	xmm1, xmm0
	pshufd	xmm0, xmm2, 177				; 000000b1H
	pand	xmm1, xmm7
	paddw	xmm2, xmm0
	lea	rcx, OFFSET FLAT:TxVector+1276
	lea	rax, OFFSET FLAT:TxVector+640
	pand	xmm2, xmm8
	lea	r8d, QWORD PTR [rdx+2]
	por	xmm1, xmm2
	movdqa	xmm2, XMMWORD PTR TxVector+640
	palignr	xmm2, xmm3, 8
	movdqu	XMMWORD PTR TxVector+1260, xmm1
	movdqa	xmm5, xmm2
	pmulhrsw xmm2, xmm14
	pmulhrsw xmm5, xmm13
	movdqa	xmm3, xmm5
	palignr	xmm3, xmm4, 12
	pshufd	xmm0, xmm3, 177				; 000000b1H
	paddw	xmm3, xmm0
	pshufd	xmm0, xmm2, 177				; 000000b1H
	paddw	xmm2, xmm0
	pand	xmm3, xmm7
	pand	xmm2, xmm8
	por	xmm3, xmm2
	npad	12
$LL1038@Dot11aTxFr@5:
	movdqu	XMMWORD PTR [rcx], xmm3
	movdqa	xmm2, XMMWORD PTR [rax]
	lea	rax, QWORD PTR [rdx+1]
	add	rax, rax
	movdqa	xmm3, xmm2
	pmulhrsw xmm2, xmm10
	pmulhrsw xmm3, xmm9
	movdqa	xmm1, xmm3
	palignr	xmm1, xmm5, 12
	pshufd	xmm0, xmm1, 177				; 000000b1H
	paddw	xmm1, xmm0
	pshufd	xmm0, xmm2, 177				; 000000b1H
	paddw	xmm2, xmm0
	pand	xmm1, xmm7
	pand	xmm2, xmm8
	por	xmm1, xmm2
	movdqu	XMMWORD PTR [rcx+12], xmm1
	movdqa	xmm2, XMMWORD PTR [rdi+rax*8]
	lea	rax, QWORD PTR [rdx+2]
	add	rax, rax
	movdqa	xmm4, xmm2
	pmulhrsw xmm2, xmm12
	pmulhrsw xmm4, xmm11
	movdqa	xmm1, xmm4
	palignr	xmm1, xmm3, 12
	pshufd	xmm0, xmm1, 177				; 000000b1H
	paddw	xmm1, xmm0
	pshufd	xmm0, xmm2, 177				; 000000b1H
	paddw	xmm2, xmm0
	pand	xmm1, xmm7
	pand	xmm2, xmm8
	por	xmm1, xmm2
	movdqu	XMMWORD PTR [rcx+28], xmm1
	movdqa	xmm3, XMMWORD PTR [rdi+rax*8]
	lea	rax, QWORD PTR [rdx+3]
	add	rax, rax
	movdqa	xmm5, xmm3
	movdqa	xmm1, xmm3
	pmulhrsw xmm1, xmm14
	pmulhrsw xmm5, xmm13
	movdqa	xmm2, xmm5
	palignr	xmm2, xmm4, 12
	pshufd	xmm0, xmm2, 177				; 000000b1H
	paddw	xmm2, xmm0
	pshufd	xmm0, xmm1, 177				; 000000b1H
	paddw	xmm1, xmm0
	pand	xmm2, xmm7
	pand	xmm1, xmm8
	por	xmm2, xmm1
	movdqu	XMMWORD PTR [rcx+44], xmm2
	movdqa	xmm4, XMMWORD PTR [rdi+rax*8]
	lea	rax, QWORD PTR [rdx+4]
	add	rax, rax
	add	rdx, 5
	movdqa	xmm2, xmm4
	palignr	xmm2, xmm3, 8
	movdqa	xmm6, xmm2
	pmulhrsw xmm2, xmm10
	pmulhrsw xmm6, xmm9
	movdqa	xmm1, xmm6
	palignr	xmm1, xmm5, 12
	pshufd	xmm0, xmm1, 177				; 000000b1H
	paddw	xmm1, xmm0
	pshufd	xmm0, xmm2, 177				; 000000b1H
	paddw	xmm2, xmm0
	pand	xmm1, xmm7
	pand	xmm2, xmm8
	por	xmm1, xmm2
	movdqu	XMMWORD PTR [rcx+56], xmm1
	movdqa	xmm3, XMMWORD PTR [rdi+rax*8]
	movdqa	xmm2, xmm3
	palignr	xmm2, xmm4, 8
	movdqa	xmm4, xmm2
	pmulhrsw xmm2, xmm12
	pmulhrsw xmm4, xmm11
	movdqa	xmm1, xmm4
	palignr	xmm1, xmm6, 12
	pshufd	xmm0, xmm1, 177				; 000000b1H
	paddw	xmm1, xmm0
	pshufd	xmm0, xmm2, 177				; 000000b1H
	pand	xmm1, xmm7
	paddw	xmm2, xmm0
	mov	rax, rdx
	add	rcx, 88					; 00000058H
	add	rax, rax
	sub	r8, 1
	pand	xmm2, xmm8
	por	xmm1, xmm2
	lea	rax, QWORD PTR TxVector[rsi+rax*8+560]
	movdqu	XMMWORD PTR [rcx-16], xmm1
	movdqa	xmm1, XMMWORD PTR [rax]
	palignr	xmm1, xmm3, 8
	movdqa	xmm5, xmm1
	pmulhrsw xmm1, xmm14
	pmulhrsw xmm5, xmm13
	movdqa	xmm3, xmm5
	palignr	xmm3, xmm4, 12
	pshufd	xmm0, xmm3, 177				; 000000b1H
	paddw	xmm3, xmm0
	pshufd	xmm0, xmm1, 177				; 000000b1H
	paddw	xmm1, xmm0
	pand	xmm3, xmm7
	pand	xmm1, xmm8
	por	xmm3, xmm1
	jne	$LL1038@Dot11aTxFr@5
	movdqa	XMMWORD PTR rr1$2818650[rsp], xmm3
	mov	eax, DWORD PTR rr1$2818650[rsp]
	mov	DWORD PTR [rcx], eax
	mov	eax, DWORD PTR rr1$2818650[rsp+4]
	mov	DWORD PTR [rcx+4], eax
	mov	eax, DWORD PTR rr1$2818650[rsp+8]
	mov	DWORD PTR [rcx+8], eax
	mov	rax, r15
	lea	ecx, QWORD PTR [r8+22]
	npad	6
$LL1875@Dot11aTxFr@5:
	movdqa	xmm1, XMMWORD PTR [rax]
	movdqa	xmm0, XMMWORD PTR [rax+16]
	add	rbx, 16
	add	rax, 32					; 00000020H
	sub	rcx, 1
	psraw	xmm1, 6
	psraw	xmm0, 6
	packsswb xmm1, xmm0
	movntdq	XMMWORD PTR [rbx-16], xmm1
	jne	SHORT $LL1875@Dot11aTxFr@5
	mov	eax, 176				; 000000b0H
	jmp	SHORT $LN1027@Dot11aTxFr@5
$LN1033@Dot11aTxFr@5:
	cmp	eax, 40					; 00000028H
	jne	SHORT $LN1028@Dot11aTxFr@5
	mov	rax, rdi
	mov	ecx, 20
	npad	2
$LL1920@Dot11aTxFr@5:
	movdqa	xmm1, XMMWORD PTR [rax]
	movdqa	xmm0, XMMWORD PTR [rax+16]
	add	rbx, 16
	add	rax, 32					; 00000020H
	sub	rcx, 1
	psraw	xmm1, 6
	psraw	xmm0, 6
	packsswb xmm1, xmm0
	movntdq	XMMWORD PTR [rbx-16], xmm1
	jne	SHORT $LL1920@Dot11aTxFr@5
	mov	eax, 160				; 000000a0H
	jmp	SHORT $LN1027@Dot11aTxFr@5
$LN1028@Dot11aTxFr@5:
	mov	eax, r13d
$LN1027@Dot11aTxFr@5:

; 37   :     
; 38   :     // Scramble Data
; 39   :     Scramble11a(pPacket->pMdl, info->bFrameScrambled,
; 40   :             uiSymbolCountData * (DBPS / BITS_PER_BYTE), pPacket->Reserved1, info->ulRadom);

	mov	edi, DWORD PTR [r12+24]
	mov	r10, QWORD PTR [r12]
	mov	ecx, eax
	mov	rax, QWORD PTR pcOutput$[rsp]
	lea	r11d, DWORD PTR [rbp+rbp*2]
	lea	r12, OFFSET FLAT:TxVector+1908
	shl	r11d, 2
	lea	rbx, QWORD PTR [rax+rcx*2]
	mov	r8b, 79					; 0000004fH
	add	r11, r12
	mov	DWORD PTR $T2819495[rsp], edi
	lea	rdx, OFFSET FLAT:TxVector+1910
	mov	QWORD PTR pcOutput$[rsp], rbx
	mov	BYTE PTR TxVector+1908, 112		; 00000070H
	mov	BYTE PTR TxVector+1909, r8b
	test	r10, r10
	je	SHORT $LN1968@Dot11aTxFr@5
	npad	15
$LL1969@Dot11aTxFr@5:
	mov	ecx, DWORD PTR [r10+44]
	mov	eax, DWORD PTR [r10+40]
	add	rcx, QWORD PTR [r10+32]
	test	eax, eax
	je	SHORT $LN1965@Dot11aTxFr@5
	mov	r9, rax
$LL1967@Dot11aTxFr@5:
	movzx	eax, r8b
	inc	rdx
	inc	rcx
	shr	rax, 1
	movzx	r8d, BYTE PTR SCRAMBLE_11A_LUT[rax+rsi]
	movzx	eax, r8b
	xor	al, BYTE PTR [rcx-1]
	sub	r9, 1
	mov	BYTE PTR [rdx-1], al
	jne	SHORT $LL1967@Dot11aTxFr@5
$LN1965@Dot11aTxFr@5:
	mov	r10, QWORD PTR [r10]
	test	r10, r10
	jne	SHORT $LL1969@Dot11aTxFr@5
$LN1968@Dot11aTxFr@5:
	movzx	eax, r8b
	add	rdx, 5
	shr	rax, 1
	movzx	ecx, BYTE PTR SCRAMBLE_11A_LUT[rax+rsi]
	movzx	eax, cl
	xor	al, dil
	mov	BYTE PTR [rdx-5], al
	mov	rax, rcx
	shr	rax, 1
	movzx	ecx, BYTE PTR SCRAMBLE_11A_LUT[rax+rsi]
	movzx	eax, cl
	xor	al, BYTE PTR $T2819495[rsp+1]
	mov	BYTE PTR [rdx-4], al
	mov	rax, rcx
	shr	rax, 1
	movzx	ecx, BYTE PTR SCRAMBLE_11A_LUT[rax+rsi]
	movzx	eax, cl
	xor	al, BYTE PTR $T2819495[rsp+2]
	mov	BYTE PTR [rdx-3], al
	mov	rax, rcx
	shr	rax, 1
	movzx	ecx, BYTE PTR SCRAMBLE_11A_LUT[rax+rsi]
	movzx	eax, cl
	xor	al, BYTE PTR $T2819495[rsp+3]
	mov	BYTE PTR [rdx-2], al
	mov	rax, rcx
	shr	rax, 1
	movzx	ecx, BYTE PTR SCRAMBLE_11A_LUT[rax+rsi]
	movzx	eax, cl
	and	al, 192					; 000000c0H
	mov	BYTE PTR [rdx-1], al
	cmp	rdx, r11
	je	SHORT $LN1963@Dot11aTxFr@5
$LL1964@Dot11aTxFr@5:
	movzx	eax, cl
	inc	rdx
	shr	rax, 1
	mov	cl, BYTE PTR SCRAMBLE_11A_LUT[rax+rsi]
	mov	BYTE PTR [rdx-1], cl
	cmp	rdx, r11
	jne	SHORT $LL1964@Dot11aTxFr@5
$LN1963@Dot11aTxFr@5:

; 41   : 
; 42   :     ConvEncodeReset(info->bConvEncoderReg);

	xor	al, al
	mov	BYTE PTR TxVector+24, al

; 43   :     pbInput = info->bFrameScrambled;
; 44   :     
; 45   :     for (i = 0; i < uiSymbolCountData; i++)

	test	ebp, ebp
	je	$LN3304@Dot11aTxFr@5
	mov	r15d, ebp
	mov	QWORD PTR tv8554[rsp], r15
$LL4@Dot11aTxFr@5:

; 46   :     {
; 47   :         pcOutput += GenerateSymbol(info, pcOutput, info->cWindow, 
; 48   :                 pbInput, (*PILOTSGN(uiPilotIndex)));

	lea	r8, OFFSET FLAT:TxVector+25
	mov	r9d, 12
	npad	3
$LL1978@Dot11aTxFr@5:
	movzx	edx, BYTE PTR [r12]
	movzx	eax, al
	add	r8, 2
	shl	eax, 8
	inc	r12
	movsxd	rcx, eax
	or	rcx, rdx
	movzx	eax, WORD PTR CONV_ENCODER_1_2_LUT[rsi+rcx*2]
	mov	WORD PTR [r8-2], ax
	movzx	eax, dl
	shr	al, 2
	sub	r9, 1
	mov	BYTE PTR TxVector+24, al
	jne	SHORT $LL1978@Dot11aTxFr@5
	movzx	eax, BYTE PTR TxVector+25
	mov	edx, 256				; 00000100H
	lea	rbp, OFFSET FLAT:TxVector+26
	lea	ecx, DWORD PTR [rax+rax*2]
	lea	r15, OFFSET FLAT:__ImageBase
	lea	eax, DWORD PTR [rcx+rcx]
	cdqe
	mov	r8d, DWORD PTR INTERLEAVE_24M_LUT[rsi+rax*4]
	mov	r9d, DWORD PTR INTERLEAVE_24M_LUT[rsi+rax*4+4]
	mov	r10d, DWORD PTR INTERLEAVE_24M_LUT[rsi+rax*4+8]
	mov	r11d, DWORD PTR INTERLEAVE_24M_LUT[rsi+rax*4+12]
	mov	edi, DWORD PTR INTERLEAVE_24M_LUT[rsi+rax*4+16]
	mov	esi, DWORD PTR INTERLEAVE_24M_LUT[rsi+rax*4+20]
	mov	DWORD PTR TxVector+81, esi
	mov	DWORD PTR TxVector+61, r8d
	mov	DWORD PTR TxVector+65, r9d
	mov	DWORD PTR TxVector+69, r10d
	mov	DWORD PTR TxVector+73, r11d
	mov	DWORD PTR TxVector+77, edi
	npad	1
$LL1983@Dot11aTxFr@5:
	movzx	eax, BYTE PTR [rbp]
	inc	rbp
	add	eax, edx
	add	edx, 256				; 00000100H
	lea	eax, DWORD PTR [rax+rax*2]
	add	eax, eax
	or	r8d, DWORD PTR INTERLEAVE_24M_LUT[r15+rax*4]
	or	r9d, DWORD PTR INTERLEAVE_24M_LUT[r15+rax*4+4]
	or	r10d, DWORD PTR INTERLEAVE_24M_LUT[r15+rax*4+8]
	or	r11d, DWORD PTR INTERLEAVE_24M_LUT[r15+rax*4+12]
	or	edi, DWORD PTR INTERLEAVE_24M_LUT[r15+rax*4+16]
	or	esi, DWORD PTR INTERLEAVE_24M_LUT[r15+rax*4+20]
	mov	DWORD PTR TxVector+61, r8d
	mov	DWORD PTR TxVector+65, r9d
	mov	DWORD PTR TxVector+69, r10d
	mov	DWORD PTR TxVector+73, r11d
	mov	DWORD PTR TxVector+77, edi
	mov	DWORD PTR TxVector+81, esi
	cmp	edx, 6144				; 00001800H
	jb	SHORT $LL1983@Dot11aTxFr@5
	mov	r15, QWORD PTR tv8554[rsp]
	lea	r10, OFFSET FLAT:TxVector+112
	lea	r8, OFFSET FLAT:TxVector+61
	mov	rdx, r10
	mov	r9d, 24
	lea	rsi, OFFSET FLAT:__ImageBase
	npad	9
$LL1988@Dot11aTxFr@5:
	movzx	eax, BYTE PTR [r8]
	add	rdx, 8
	inc	r8
	add	eax, eax
	sub	r9, 1
	movsxd	rcx, eax
	mov	eax, DWORD PTR MAPA_16QAM_LUT[rsi+rcx*4]
	mov	DWORD PTR [rdx-8], eax
	mov	eax, DWORD PTR MAPA_16QAM_LUT[rsi+rcx*4+4]
	mov	DWORD PTR [rdx-4], eax
	jne	SHORT $LL1988@Dot11aTxFr@5
	mov	rcx, r10
	mov	edx, 38					; 00000026H
	lea	r8, OFFSET FLAT:TxVector+456
	npad	7
$LL2002@Dot11aTxFr@5:
	cmp	edx, 57					; 00000039H
	je	SHORT $LN2001@Dot11aTxFr@5
	cmp	edx, 43					; 0000002bH
	je	SHORT $LN2001@Dot11aTxFr@5
	mov	eax, DWORD PTR [rcx]
	add	rcx, 4
	mov	DWORD PTR [r8], eax
$LN2001@Dot11aTxFr@5:
	inc	edx
	add	r8, 4
	cmp	edx, 64					; 00000040H
	jb	SHORT $LL2002@Dot11aTxFr@5
	mov	edx, 1
	lea	r8, OFFSET FLAT:TxVector+308
	npad	6
$LL1997@Dot11aTxFr@5:
	cmp	edx, 7
	je	SHORT $LN1996@Dot11aTxFr@5
	cmp	edx, 21
	je	SHORT $LN1996@Dot11aTxFr@5
	mov	eax, DWORD PTR [rcx]
	add	rcx, 4
	mov	DWORD PTR [r8], eax
$LN1996@Dot11aTxFr@5:
	inc	edx
	add	r8, 4
	cmp	edx, 26
	jbe	SHORT $LL1997@Dot11aTxFr@5
	cmp	BYTE PTR PILOTSGN_LUT[r13+rsi], 0
	jne	SHORT $LN1992@Dot11aTxFr@5
	xor	edi, edi
	mov	eax, 10720				; 000029e0H
	mov	ecx, -10720				; ffffffffffffd620H
	mov	WORD PTR TxVector+332, ax
	mov	WORD PTR TxVector+334, di
	mov	WORD PTR TxVector+388, cx
	mov	WORD PTR TxVector+390, di
	mov	WORD PTR TxVector+532, ax
	mov	WORD PTR TxVector+534, di
	mov	WORD PTR TxVector+476, ax
	mov	WORD PTR TxVector+478, di
	jmp	SHORT $LN2016@Dot11aTxFr@5
$LN1992@Dot11aTxFr@5:
	xor	edi, edi
	mov	ecx, -10720				; ffffffffffffd620H
	mov	eax, 10720				; 000029e0H
	mov	WORD PTR TxVector+332, cx
	mov	WORD PTR TxVector+334, di
	mov	WORD PTR TxVector+388, ax
	mov	WORD PTR TxVector+390, di
	mov	WORD PTR TxVector+532, cx
	mov	WORD PTR TxVector+534, di
	mov	WORD PTR TxVector+476, cx
	mov	WORD PTR TxVector+478, di
$LN2016@Dot11aTxFr@5:
	lea	rcx, QWORD PTR temp$2826801[rsp]
	xor	edx, edx
	mov	r8d, 512				; 00000200H
	call	memset
	lea	rcx, QWORD PTR temp$2826801[rsp]
	lea	rdx, OFFSET FLAT:TxVector+304
	mov	r8d, 128				; 00000080H
	call	memcpy
	lea	rcx, QWORD PTR temp$2826801[rsp+384]
	lea	rdx, OFFSET FLAT:TxVector+432
	mov	r8d, 128				; 00000080H
	call	memcpy
	lea	rcx, QWORD PTR temp$2826801[rsp]
	call	??$IFFTSSEEx@$0IA@@@YAXPEAUvcs@@@Z	; IFFTSSEEx<128>
	lea	r8, OFFSET FLAT:TxVector+688
	lea	rdx, OFFSET FLAT:?FFT128LUTMap@@3QBFB	; FFT128LUTMap
	mov	r11, r8
	lea	rsi, OFFSET FLAT:?FFT128LUTMap@@3QBFB+256
	npad	8
$LL2012@Dot11aTxFr@5:
	movsx	rax, WORD PTR [rdx]
	add	rdx, 2
	add	r11, 4
	cmp	rdx, rsi
	mov	ecx, DWORD PTR temp$2826801[rsp+rax*4]
	mov	DWORD PTR [r11-4], ecx
	jl	SHORT $LL2012@Dot11aTxFr@5
	lea	rsi, OFFSET FLAT:__ImageBase
	mov	rax, r8
	mov	ecx, 32					; 00000020H
	npad	8
$LL2009@Dot11aTxFr@5:
	movdqa	xmm0, XMMWORD PTR [rax]
	add	rax, 16
	sub	rcx, 1
	psllw	xmm0, 2
	movdqa	XMMWORD PTR [rax-16], xmm0
	jne	SHORT $LL2009@Dot11aTxFr@5
	lea	rbp, OFFSET FLAT:TxVector+560
	lea	rdx, OFFSET FLAT:TxVector+1072
	mov	r8d, 128				; 00000080H
	mov	rcx, rbp
	call	memcpy
	movzx	ecx, WORD PTR TxVector+568
	sar	WORD PTR TxVector+562, 2
	sar	WORD PTR TxVector+564, 1
	sar	WORD PTR TxVector+566, 1
	movzx	r11d, WORD PTR TxVector+1072
	movzx	eax, cx
	sar	r11w, 2
	sar	ax, 2
	mov	WORD PTR TxVector+560, r11w
	sub	cx, ax
	mov	WORD PTR TxVector+568, cx
	movzx	ecx, WORD PTR TxVector+570
	movzx	eax, cx
	sar	ax, 2
	sub	cx, ax
	movzx	eax, WORD PTR TxVector+6912
	mov	WORD PTR TxVector+570, cx
	movzx	ecx, WORD PTR TxVector+688
	movdqa	xmm0, XMMWORD PTR TxVector+560
	paddsw	xmm0, XMMWORD PTR TxVector+6912
	mov	WORD PTR TxVector+6924, di
	mov	WORD PTR TxVector+6926, di
	movdqa	XMMWORD PTR TxVector+560, xmm0
	add	WORD PTR TxVector+560, ax
	movzx	eax, WORD PTR TxVector+6914
	add	WORD PTR TxVector+562, ax
	movzx	eax, cx
	sar	ax, 2
	sub	cx, ax
	mov	WORD PTR TxVector+6912, cx
	movzx	ecx, WORD PTR TxVector+690
	movzx	eax, cx
	sar	ax, 2
	sub	cx, ax
	movzx	eax, WORD PTR TxVector+692
	sar	ax, 1
	mov	WORD PTR TxVector+6914, cx
	mov	WORD PTR TxVector+6916, ax
	movzx	eax, WORD PTR TxVector+694
	sar	ax, 1
	mov	WORD PTR TxVector+6918, ax
	movzx	eax, WORD PTR TxVector+696
	sar	ax, 2
	mov	WORD PTR TxVector+6920, ax
	movzx	eax, WORD PTR TxVector+698
	sar	ax, 2
	cmp	DWORD PTR TxVector, 44			; 0000002cH
	mov	WORD PTR TxVector+6922, ax
	jne	$LN2051@Dot11aTxFr@5
	movdqa	xmm7, XMMWORD PTR ?_ODD_MASK@@3QBU_COMPLEX16@@B
	movdqa	xmm8, XMMWORD PTR ?_EVEN_MASK@@3QBU_COMPLEX16@@B
	movdqa	xmm2, XMMWORD PTR TxVector+560
	xorps	xmm0, xmm0
	mov	edx, 5
	movdqa	xmm9, XMMWORD PTR ?g_coff1_row0@@3QAY07$$CBFA
	movdqa	xmm10, XMMWORD PTR ?g_coff1_row1@@3QAY07$$CBFA
	movdqa	xmm11, XMMWORD PTR ?g_coff1_row0@@3QAY07$$CBFA+16
	movdqa	xmm12, XMMWORD PTR ?g_coff1_row1@@3QAY07$$CBFA+16
	movdqa	xmm13, XMMWORD PTR ?g_coff1_row0@@3QAY07$$CBFA+32
	movdqa	xmm14, XMMWORD PTR ?g_coff1_row1@@3QAY07$$CBFA+32
	movdqa	xmm3, xmm2
	pmulhrsw xmm2, xmm10
	pmulhrsw xmm3, xmm9
	movdqa	xmm1, xmm3
	palignr	xmm1, xmm0, 12
	pshufd	xmm0, xmm1, 177				; 000000b1H
	paddw	xmm1, xmm0
	pshufd	xmm0, xmm2, 177				; 000000b1H
	paddw	xmm2, xmm0
	pand	xmm1, xmm7
	pand	xmm2, xmm8
	por	xmm1, xmm2
	movdqa	xmm2, XMMWORD PTR TxVector+576
	movdqu	XMMWORD PTR TxVector+1200, xmm1
	movdqa	xmm4, xmm2
	pmulhrsw xmm2, xmm12
	pmulhrsw xmm4, xmm11
	movdqa	xmm1, xmm4
	palignr	xmm1, xmm3, 12
	movdqa	xmm3, XMMWORD PTR TxVector+592
	pshufd	xmm0, xmm1, 177				; 000000b1H
	movdqa	xmm5, xmm3
	paddw	xmm1, xmm0
	pshufd	xmm0, xmm2, 177				; 000000b1H
	pmulhrsw xmm5, xmm13
	paddw	xmm2, xmm0
	pand	xmm1, xmm7
	pand	xmm2, xmm8
	por	xmm1, xmm2
	movdqa	xmm2, xmm5
	palignr	xmm2, xmm4, 12
	movdqa	xmm4, XMMWORD PTR TxVector+608
	movdqu	XMMWORD PTR TxVector+1216, xmm1
	movdqa	xmm1, xmm3
	pshufd	xmm0, xmm2, 177				; 000000b1H
	pmulhrsw xmm1, xmm14
	paddw	xmm2, xmm0
	pshufd	xmm0, xmm1, 177				; 000000b1H
	paddw	xmm1, xmm0
	pand	xmm2, xmm7
	pand	xmm1, xmm8
	por	xmm2, xmm1
	movdqu	XMMWORD PTR TxVector+1232, xmm2
	movdqa	xmm2, xmm4
	palignr	xmm2, xmm3, 8
	movdqa	xmm3, XMMWORD PTR TxVector+624
	movdqa	xmm6, xmm2
	pmulhrsw xmm2, xmm10
	pmulhrsw xmm6, xmm9
	movdqa	xmm1, xmm6
	palignr	xmm1, xmm5, 12
	pshufd	xmm0, xmm1, 177				; 000000b1H
	paddw	xmm1, xmm0
	pshufd	xmm0, xmm2, 177				; 000000b1H
	paddw	xmm2, xmm0
	pand	xmm1, xmm7
	pand	xmm2, xmm8
	por	xmm1, xmm2
	movdqa	xmm2, xmm3
	palignr	xmm2, xmm4, 8
	movdqu	XMMWORD PTR TxVector+1244, xmm1
	movdqa	xmm4, xmm2
	pmulhrsw xmm2, xmm12
	pmulhrsw xmm4, xmm11
	movdqa	xmm1, xmm4
	palignr	xmm1, xmm6, 12
	pshufd	xmm0, xmm1, 177				; 000000b1H
	paddw	xmm1, xmm0
	pshufd	xmm0, xmm2, 177				; 000000b1H
	pand	xmm1, xmm7
	paddw	xmm2, xmm0
	lea	rcx, OFFSET FLAT:TxVector+1276
	lea	rax, OFFSET FLAT:TxVector+640
	pand	xmm2, xmm8
	lea	r8d, QWORD PTR [rdx+2]
	por	xmm1, xmm2
	movdqa	xmm2, XMMWORD PTR TxVector+640
	palignr	xmm2, xmm3, 8
	movdqu	XMMWORD PTR TxVector+1260, xmm1
	movdqa	xmm5, xmm2
	pmulhrsw xmm2, xmm14
	pmulhrsw xmm5, xmm13
	movdqa	xmm3, xmm5
	palignr	xmm3, xmm4, 12
	pshufd	xmm0, xmm3, 177				; 000000b1H
	paddw	xmm3, xmm0
	pshufd	xmm0, xmm2, 177				; 000000b1H
	paddw	xmm2, xmm0
	pand	xmm3, xmm7
	pand	xmm2, xmm8
	por	xmm3, xmm2
$LL2056@Dot11aTxFr@5:
	movdqu	XMMWORD PTR [rcx], xmm3
	movdqa	xmm2, XMMWORD PTR [rax]
	lea	rax, QWORD PTR [rdx+1]
	add	rax, rax
	movdqa	xmm3, xmm2
	pmulhrsw xmm2, xmm10
	pmulhrsw xmm3, xmm9
	movdqa	xmm1, xmm3
	palignr	xmm1, xmm5, 12
	pshufd	xmm0, xmm1, 177				; 000000b1H
	paddw	xmm1, xmm0
	pshufd	xmm0, xmm2, 177				; 000000b1H
	paddw	xmm2, xmm0
	pand	xmm1, xmm7
	pand	xmm2, xmm8
	por	xmm1, xmm2
	movdqu	XMMWORD PTR [rcx+12], xmm1
	movdqa	xmm2, XMMWORD PTR [rbp+rax*8]
	lea	rax, QWORD PTR [rdx+2]
	add	rax, rax
	movdqa	xmm4, xmm2
	pmulhrsw xmm2, xmm12
	pmulhrsw xmm4, xmm11
	movdqa	xmm1, xmm4
	palignr	xmm1, xmm3, 12
	pshufd	xmm0, xmm1, 177				; 000000b1H
	paddw	xmm1, xmm0
	pshufd	xmm0, xmm2, 177				; 000000b1H
	paddw	xmm2, xmm0
	pand	xmm1, xmm7
	pand	xmm2, xmm8
	por	xmm1, xmm2
	movdqu	XMMWORD PTR [rcx+28], xmm1
	movdqa	xmm3, XMMWORD PTR [rbp+rax*8]
	lea	rax, QWORD PTR [rdx+3]
	add	rax, rax
	movdqa	xmm5, xmm3
	movdqa	xmm1, xmm3
	pmulhrsw xmm1, xmm14
	pmulhrsw xmm5, xmm13
	movdqa	xmm2, xmm5
	palignr	xmm2, xmm4, 12
	pshufd	xmm0, xmm2, 177				; 000000b1H
	paddw	xmm2, xmm0
	pshufd	xmm0, xmm1, 177				; 000000b1H
	paddw	xmm1, xmm0
	pand	xmm2, xmm7
	pand	xmm1, xmm8
	por	xmm2, xmm1
	movdqu	XMMWORD PTR [rcx+44], xmm2
	movdqa	xmm4, XMMWORD PTR [rbp+rax*8]
	lea	rax, QWORD PTR [rdx+4]
	add	rax, rax
	add	rdx, 5
	movdqa	xmm2, xmm4
	palignr	xmm2, xmm3, 8
	movdqa	xmm6, xmm2
	pmulhrsw xmm2, xmm10
	pmulhrsw xmm6, xmm9
	movdqa	xmm1, xmm6
	palignr	xmm1, xmm5, 12
	pshufd	xmm0, xmm1, 177				; 000000b1H
	paddw	xmm1, xmm0
	pshufd	xmm0, xmm2, 177				; 000000b1H
	paddw	xmm2, xmm0
	pand	xmm1, xmm7
	pand	xmm2, xmm8
	por	xmm1, xmm2
	movdqu	XMMWORD PTR [rcx+56], xmm1
	movdqa	xmm3, XMMWORD PTR [rbp+rax*8]
	movdqa	xmm2, xmm3
	palignr	xmm2, xmm4, 8
	movdqa	xmm4, xmm2
	pmulhrsw xmm2, xmm12
	pmulhrsw xmm4, xmm11
	movdqa	xmm1, xmm4
	palignr	xmm1, xmm6, 12
	pshufd	xmm0, xmm1, 177				; 000000b1H
	paddw	xmm1, xmm0
	pshufd	xmm0, xmm2, 177				; 000000b1H
	pand	xmm1, xmm7
	paddw	xmm2, xmm0
	mov	rax, rdx
	add	rcx, 88					; 00000058H
	add	rax, rax
	sub	r8, 1
	pand	xmm2, xmm8
	por	xmm1, xmm2
	lea	rax, QWORD PTR TxVector[rsi+rax*8+560]
	movdqu	XMMWORD PTR [rcx-16], xmm1
	movdqa	xmm1, XMMWORD PTR [rax]
	palignr	xmm1, xmm3, 8
	movdqa	xmm5, xmm1
	pmulhrsw xmm1, xmm14
	pmulhrsw xmm5, xmm13
	movdqa	xmm3, xmm5
	palignr	xmm3, xmm4, 12
	pshufd	xmm0, xmm3, 177				; 000000b1H
	paddw	xmm3, xmm0
	pshufd	xmm0, xmm1, 177				; 000000b1H
	paddw	xmm1, xmm0
	pand	xmm3, xmm7
	pand	xmm1, xmm8
	por	xmm3, xmm1
	jne	$LL2056@Dot11aTxFr@5
	movdqa	XMMWORD PTR rr1$2827228[rsp], xmm3
	mov	eax, DWORD PTR rr1$2827228[rsp]
	mov	DWORD PTR [rcx], eax
	mov	eax, DWORD PTR rr1$2827228[rsp+4]
	mov	DWORD PTR [rcx+4], eax
	mov	eax, DWORD PTR rr1$2827228[rsp+8]
	mov	DWORD PTR [rcx+8], eax
	lea	rax, OFFSET FLAT:TxVector+1200
	lea	ecx, QWORD PTR [r8+22]
$LL2893@Dot11aTxFr@5:
	movdqa	xmm1, XMMWORD PTR [rax]
	movdqa	xmm0, XMMWORD PTR [rax+16]
	add	rbx, 16
	add	rax, 32					; 00000020H
	sub	rcx, 1
	psraw	xmm1, 6
	psraw	xmm0, 6
	packsswb xmm1, xmm0
	movntdq	XMMWORD PTR [rbx-16], xmm1
	jne	SHORT $LL2893@Dot11aTxFr@5
	mov	eax, 176				; 000000b0H
	jmp	SHORT $LN2045@Dot11aTxFr@5
$LN2051@Dot11aTxFr@5:
	cmp	DWORD PTR TxVector, 40			; 00000028H
	jne	SHORT $LN2046@Dot11aTxFr@5
	mov	rax, rbp
	mov	ecx, 20
	npad	11
$LL2938@Dot11aTxFr@5:
	movdqa	xmm1, XMMWORD PTR [rax]
	movdqa	xmm0, XMMWORD PTR [rax+16]
	add	rbx, 16
	add	rax, 32					; 00000020H
	sub	rcx, 1
	psraw	xmm1, 6
	psraw	xmm0, 6
	packsswb xmm1, xmm0
	movntdq	XMMWORD PTR [rbx-16], xmm1
	jne	SHORT $LL2938@Dot11aTxFr@5
	mov	eax, 160				; 000000a0H
	jmp	SHORT $LN2045@Dot11aTxFr@5
$LN2046@Dot11aTxFr@5:
	mov	eax, edi
$LN2045@Dot11aTxFr@5:
	mov	ecx, eax
	mov	rax, QWORD PTR pcOutput$[rsp]

; 49   :         uiPilotIndex++;

	inc	r14d
	lea	rbx, QWORD PTR [rax+rcx*2]
	inc	r13
	mov	QWORD PTR pcOutput$[rsp], rbx

; 50   :         if (uiPilotIndex == 127)

	cmp	r14d, 127				; 0000007fH
	jne	SHORT $LN1@Dot11aTxFr@5

; 51   :             uiPilotIndex = 0;

	mov	r14d, edi
	mov	r13, rdi
$LN1@Dot11aTxFr@5:
	sub	r15, 1
	mov	QWORD PTR tv8554[rsp], r15
	je	SHORT $LN3304@Dot11aTxFr@5

; 41   : 
; 42   :     ConvEncodeReset(info->bConvEncoderReg);

	mov	al, BYTE PTR TxVector+24
	jmp	$LL4@Dot11aTxFr@5
$LN3304@Dot11aTxFr@5:

; 52   :         pbInput += (DBPS / BITS_PER_BYTE);
; 53   :     }
; 54   :     
; 55   :     UpsampleTailAndCopyNT(info, pcOutput);

	cmp	DWORD PTR TxVector, 44			; 0000002cH
	movaps	xmm14, XMMWORD PTR [rsp+624]
	movaps	xmm13, XMMWORD PTR [rsp+640]
	mov	r15, QWORD PTR [rsp+768]
	mov	r14, QWORD PTR [rsp+776]
	mov	r13, QWORD PTR [rsp+784]
	movaps	xmm12, XMMWORD PTR [rsp+656]
	movaps	xmm11, XMMWORD PTR [rsp+672]
	movaps	xmm10, XMMWORD PTR [rsp+688]
	mov	r12, QWORD PTR [rsp+792]
	mov	rdi, QWORD PTR [rsp+840]
	mov	rsi, QWORD PTR [rsp+832]
	movaps	xmm9, XMMWORD PTR [rsp+704]
	movaps	xmm8, XMMWORD PTR [rsp+720]
	movaps	xmm7, XMMWORD PTR [rsp+736]
	mov	rbp, QWORD PTR [rsp+816]
	movaps	xmm6, XMMWORD PTR [rsp+752]
	jne	SHORT $LN2984@Dot11aTxFr@5
	movdqa	xmm1, XMMWORD PTR TxVector+6912
	xorps	xmm3, xmm3

; 56   : 
; 57   :     return S_OK;

	xor	eax, eax
	movdqa	xmm2, xmm1
	movdqa	XMMWORD PTR TxVector+1216, xmm3
	pmulhrsw xmm1, XMMWORD PTR ?g_coff1_row1@@3QAY07$$CBFA
	pmulhrsw xmm2, XMMWORD PTR ?g_coff1_row0@@3QAY07$$CBFA
	palignr	xmm2, xmm3, 12
	psraw	xmm3, 6
	pshufd	xmm0, xmm2, 177				; 000000b1H
	paddw	xmm2, xmm0
	pshufd	xmm0, xmm1, 177				; 000000b1H
	pand	xmm2, XMMWORD PTR ?_ODD_MASK@@3QBU_COMPLEX16@@B
	paddw	xmm1, xmm0
	pand	xmm1, XMMWORD PTR ?_EVEN_MASK@@3QBU_COMPLEX16@@B
	por	xmm2, xmm1
	movdqa	XMMWORD PTR TxVector+1200, xmm2
	psraw	xmm2, 6
	packsswb xmm2, xmm3
	movntdq	XMMWORD PTR [rbx], xmm2

; 58   : }

	add	rsp, 800				; 00000320H
	pop	rbx
	ret	0

; 52   :         pbInput += (DBPS / BITS_PER_BYTE);
; 53   :     }
; 54   :     
; 55   :     UpsampleTailAndCopyNT(info, pcOutput);

$LN2984@Dot11aTxFr@5:
	cmp	DWORD PTR TxVector, 40			; 00000028H
	jne	SHORT $LN3288@Dot11aTxFr@5
	movdqa	xmm1, XMMWORD PTR TxVector+6912
	movdqa	xmm0, XMMWORD PTR TxVector+6928
	psraw	xmm1, 6
	psraw	xmm0, 6
	packsswb xmm1, xmm0
	movntdq	XMMWORD PTR [rbx], xmm1
$LN3288@Dot11aTxFr@5:

; 56   : 
; 57   :     return S_OK;

	xor	eax, eax

; 58   : }

	add	rsp, 800				; 00000320H
	pop	rbx
	ret	0
?Dot11aTxFrameEncode24@@YAJPEAU_BB11A_TX_VECTOR@@PEAU__PACKET_BASE@@@Z ENDP ; Dot11aTxFrameEncode24
END
